

Microchip MPLAB XC8 Assembler V2.32 build 20210201212658 
                                                                                               Sun May 30 08:36:31 2021

Microchip MPLAB XC8 C Compiler v2.32 (Free license) build 20210201212658 Og1 
     1                           	processor	16LF1829
     2                           	pagewidth 120
     3                           	opt	flic
     4                           	psect	stringtext1,global,class=STRCODE,delta=2,noexec
     5                           	psect	nvCOMMON,global,class=COMMON,space=1,delta=1,noexec
     6                           	psect	cinit,global,class=CODE,merge=1,delta=2
     7                           	psect	bssCOMMON,global,class=COMMON,space=1,delta=1,noexec
     8                           	psect	bssBANK0,global,class=BANK0,space=1,delta=1,noexec
     9                           	psect	clrtext,global,class=CODE,delta=2
    10                           	psect	cstackCOMMON,global,class=COMMON,space=1,delta=1,noexec
    11                           	psect	cstackBANK0,global,class=BANK0,space=1,delta=1,noexec
    12                           	psect	maintext,global,class=CODE,merge=1,split=1,delta=2
    13                           	psect	text1,local,class=CODE,merge=1,delta=2
    14                           	psect	text2,local,class=CODE,merge=1,delta=2
    15                           	psect	text3,local,class=CODE,merge=1,delta=2
    16                           	psect	text4,local,class=CODE,merge=1,delta=2
    17                           	psect	text5,local,class=CODE,merge=1,delta=2
    18                           	psect	text6,local,class=CODE,merge=1,delta=2
    19                           	psect	text7,local,class=CODE,merge=1,delta=2
    20                           	psect	text8,local,class=CODE,merge=1,delta=2
    21                           	psect	text9,local,class=CODE,merge=1,delta=2
    22                           	psect	text10,local,class=CODE,merge=1,delta=2
    23                           	psect	text11,local,class=CODE,merge=1,delta=2
    24                           	psect	text12,local,class=CODE,merge=1,delta=2
    25                           	psect	text13,local,class=CODE,merge=1,delta=2
    26                           	psect	text14,local,class=CODE,merge=1,delta=2
    27                           	psect	text15,local,class=CODE,merge=1,delta=2
    28                           	psect	text16,local,class=CODE,merge=1,delta=2
    29                           	psect	text17,local,class=CODE,merge=1,delta=2
    30                           	psect	text18,local,class=CODE,merge=1,delta=2
    31                           	psect	text19,local,class=CODE,merge=1,delta=2
    32                           	psect	text20,local,class=CODE,merge=1,inline,delta=2
    33                           	psect	text21,local,class=CODE,merge=1,delta=2
    34                           	psect	text22,local,class=CODE,merge=1,delta=2
    35                           	psect	text23,local,class=CODE,merge=1,delta=2
    36                           	psect	text24,local,class=CODE,merge=1,inline,delta=2
    37                           	psect	text25,local,class=CODE,merge=1,inline,delta=2
    38                           	psect	text26,local,class=CODE,merge=1,delta=2
    39                           	psect	text27,local,class=CODE,merge=1,delta=2
    40                           	psect	text28,local,class=CODE,merge=1,delta=2
    41                           	psect	text29,local,class=CODE,merge=1,delta=2
    42                           	psect	text30,local,class=CODE,merge=1,delta=2
    43                           	psect	text31,local,class=CODE,merge=1,delta=2
    44                           	psect	text32,local,class=CODE,merge=1,delta=2
    45                           	psect	text33,local,class=CODE,merge=1,delta=2
    46                           	psect	text34,local,class=CODE,merge=1,delta=2
    47                           	psect	text35,local,class=CODE,merge=1,delta=2
    48                           	psect	text36,local,class=CODE,merge=1,delta=2
    49                           	psect	text37,local,class=CODE,merge=1,delta=2
    50                           	psect	text38,local,class=CODE,merge=1,delta=2
    51                           	psect	text39,local,class=CODE,merge=1,delta=2
    52                           	psect	text40,local,class=CODE,merge=1,delta=2
    53                           	psect	text41,local,class=CODE,merge=1,delta=2
    54                           	psect	text42,local,class=CODE,merge=1,inline,delta=2
    55                           	psect	text43,local,class=CODE,merge=1,inline,delta=2
    56                           	psect	text44,local,class=CODE,merge=1,inline,delta=2
    57                           	psect	text45,local,class=CODE,merge=1,inline,delta=2
    58                           	psect	text46,local,class=CODE,merge=1,inline,delta=2
    59                           	psect	text47,local,class=CODE,merge=1,inline,delta=2
    60                           	psect	text48,local,class=CODE,merge=1,inline,delta=2
    61                           	psect	text49,local,class=CODE,merge=1,delta=2
    62                           	psect	text50,local,class=CODE,merge=1,delta=2
    63                           	psect	text51,local,class=CODE,merge=1,delta=2
    64                           	psect	text52,local,class=CODE,merge=1,delta=2
    65                           	psect	text53,local,class=CODE,merge=1,delta=2
    66                           	psect	text54,local,class=CODE,merge=1,delta=2
    67                           	psect	text55,local,class=CODE,merge=1,delta=2
    68                           	psect	text56,local,class=CODE,merge=1,delta=2
    69                           	psect	text57,local,class=CODE,merge=1,delta=2
    70                           	psect	text58,local,class=CODE,merge=1,delta=2
    71                           	psect	text59,local,class=CODE,merge=1,inline,delta=2
    72                           	psect	text60,local,class=CODE,merge=1,inline,delta=2
    73                           	psect	text61,local,class=CODE,merge=1,inline,delta=2
    74                           	psect	text62,local,class=CODE,merge=1,delta=2
    75                           	psect	text63,local,class=CODE,merge=1,inline,delta=2
    76                           	psect	text64,local,class=CODE,merge=1,inline,delta=2
    77                           	psect	text65,local,class=CODE,merge=1,inline,delta=2
    78                           	psect	text66,local,class=CODE,merge=1,delta=2
    79                           	psect	text67,local,class=CODE,merge=1,delta=2
    80                           	psect	text68,local,class=CODE,merge=1,delta=2
    81                           	psect	intentry,global,class=CODE,delta=2
    82                           	psect	text70,local,class=CODE,merge=1,delta=2
    83                           	psect	text71,local,class=CODE,merge=1,delta=2
    84                           	psect	text72,local,class=CODE,merge=1,delta=2
    85                           	psect	text73,local,class=CODE,merge=1,delta=2
    86                           	psect	text74,local,class=CODE,merge=1,delta=2
    87                           	psect	text75,local,class=CODE,merge=1,delta=2
    88                           	psect	text76,local,class=CODE,merge=1,delta=2
    89                           	psect	text77,local,class=CODE,merge=1,delta=2
    90                           	psect	text78,local,class=CODE,merge=1,delta=2
    91                           	psect	text79,local,class=CODE,merge=1,delta=2
    92                           	psect	text80,local,class=CODE,merge=1,delta=2
    93                           	psect	text81,local,class=CODE,merge=1,delta=2
    94                           	psect	text82,local,class=CODE,merge=1,delta=2
    95                           	psect	text83,local,class=CODE,merge=1,delta=2
    96                           	psect	text84,local,class=CODE,merge=1,delta=2
    97                           	psect	text85,local,class=CODE,merge=1,delta=2
    98                           	psect	text86,local,class=CODE,merge=1,delta=2
    99                           	psect	text87,local,class=CODE,merge=1,delta=2
   100                           	psect	config,global,abs,ovrld,class=CONFIG,space=4,delta=2,noexec
   101                           	dabs	1,0x7E,2
   102  0000                     
   103                           ; Version 2.20
   104                           ; Generated 12/02/2020 GMT
   105                           ; 
   106                           ; Copyright © 2020, Microchip Technology Inc. and its subsidiaries ("Microchip")
   107                           ; All rights reserved.
   108                           ; 
   109                           ; This software is developed by Microchip Technology Inc. and its subsidiaries ("Microch
      +                          ip").
   110                           ; 
   111                           ; Redistribution and use in source and binary forms, with or without modification, are
   112                           ; permitted provided that the following conditions are met:
   113                           ; 
   114                           ;     1. Redistributions of source code must retain the above copyright notice, this lis
      +                          t of
   115                           ;        conditions and the following disclaimer.
   116                           ; 
   117                           ;     2. Redistributions in binary form must reproduce the above copyright notice, this 
      +                          list
   118                           ;        of conditions and the following disclaimer in the documentation and/or other
   119                           ;        materials provided with the distribution.
   120                           ; 
   121                           ;     3. Microchip's name may not be used to endorse or promote products derived from th
      +                          is
   122                           ;        software without specific prior written permission.
   123                           ; 
   124                           ; THIS SOFTWARE IS PROVIDED BY MICROCHIP "AS IS" AND ANY EXPRESS OR IMPLIED WARRANTIES,
   125                           ; INCLUDING, BUT NOT LIMITED TO, THE IMPLIED WARRANTIES OF MERCHANTABILITY AND FITNESS F
      +                          OR
   126                           ; PURPOSE ARE DISCLAIMED.  IN NO EVENT SHALL MICROCHIP BE LIABLE FOR ANY DIRECT, INDIREC
      +                          T,
   127                           ; INCIDENTAL, SPECIAL, EXEMPLARY, OR CONSEQUENTIAL DAMAGES (INCLUDING BUT NOT LIMITED TO
   128                           ; PROCUREMENT OF SUBSTITUTE GOODS OR SERVICES; LOSS OF USE, DATA OR PROFITS; OR BUSINESS
   129                           ; INTERRUPTION) HOWSOEVER CAUSED AND ON ANY THEORY OF LIABILITY, WHETHER IN CONTRACT, ST
      +                          RICT
   130                           ; LIABILITY, OR TORT (INCLUDING NEGLIGENCE OR OTHERWISE) ARISING IN ANY WAY OUT OF THE U
      +                          SE OF
   131                           ; THIS SOFTWARE, EVEN IF ADVISED OF THE POSSIBILITY OF SUCH DAMAGE.
   132                           ; 
   133                           ; 
   134                           ; Code-generator required, PIC16LF1829 Definitions
   135                           ; 
   136                           ; SFR Addresses
   137  0000                     	;# 
   138  0001                     	;# 
   139  0002                     	;# 
   140  0003                     	;# 
   141  0004                     	;# 
   142  0005                     	;# 
   143  0006                     	;# 
   144  0007                     	;# 
   145  0008                     	;# 
   146  0009                     	;# 
   147  000A                     	;# 
   148  000B                     	;# 
   149  000C                     	;# 
   150  000D                     	;# 
   151  000E                     	;# 
   152  0011                     	;# 
   153  0012                     	;# 
   154  0013                     	;# 
   155  0014                     	;# 
   156  0015                     	;# 
   157  0016                     	;# 
   158  0016                     	;# 
   159  0017                     	;# 
   160  0018                     	;# 
   161  0019                     	;# 
   162  001A                     	;# 
   163  001B                     	;# 
   164  001C                     	;# 
   165  001E                     	;# 
   166  001F                     	;# 
   167  008C                     	;# 
   168  008D                     	;# 
   169  008E                     	;# 
   170  0091                     	;# 
   171  0092                     	;# 
   172  0093                     	;# 
   173  0094                     	;# 
   174  0095                     	;# 
   175  0096                     	;# 
   176  0097                     	;# 
   177  0098                     	;# 
   178  0099                     	;# 
   179  009A                     	;# 
   180  009B                     	;# 
   181  009B                     	;# 
   182  009C                     	;# 
   183  009D                     	;# 
   184  009E                     	;# 
   185  010C                     	;# 
   186  010D                     	;# 
   187  010E                     	;# 
   188  0111                     	;# 
   189  0112                     	;# 
   190  0113                     	;# 
   191  0114                     	;# 
   192  0115                     	;# 
   193  0116                     	;# 
   194  0117                     	;# 
   195  0118                     	;# 
   196  0119                     	;# 
   197  011A                     	;# 
   198  011B                     	;# 
   199  011D                     	;# 
   200  011E                     	;# 
   201  018C                     	;# 
   202  018D                     	;# 
   203  018E                     	;# 
   204  0191                     	;# 
   205  0191                     	;# 
   206  0192                     	;# 
   207  0193                     	;# 
   208  0193                     	;# 
   209  0193                     	;# 
   210  0194                     	;# 
   211  0195                     	;# 
   212  0196                     	;# 
   213  0199                     	;# 
   214  019A                     	;# 
   215  019B                     	;# 
   216  019B                     	;# 
   217  019B                     	;# 
   218  019B                     	;# 
   219  019C                     	;# 
   220  019C                     	;# 
   221  019D                     	;# 
   222  019E                     	;# 
   223  019F                     	;# 
   224  020C                     	;# 
   225  020D                     	;# 
   226  020E                     	;# 
   227  0211                     	;# 
   228  0211                     	;# 
   229  0212                     	;# 
   230  0212                     	;# 
   231  0213                     	;# 
   232  0213                     	;# 
   233  0214                     	;# 
   234  0214                     	;# 
   235  0215                     	;# 
   236  0215                     	;# 
   237  0215                     	;# 
   238  0216                     	;# 
   239  0216                     	;# 
   240  0217                     	;# 
   241  0217                     	;# 
   242  0219                     	;# 
   243  021A                     	;# 
   244  021B                     	;# 
   245  021C                     	;# 
   246  021D                     	;# 
   247  021E                     	;# 
   248  021F                     	;# 
   249  0291                     	;# 
   250  0291                     	;# 
   251  0292                     	;# 
   252  0293                     	;# 
   253  0294                     	;# 
   254  0295                     	;# 
   255  0295                     	;# 
   256  0296                     	;# 
   257  0298                     	;# 
   258  0298                     	;# 
   259  0299                     	;# 
   260  029A                     	;# 
   261  029B                     	;# 
   262  029C                     	;# 
   263  029D                     	;# 
   264  029E                     	;# 
   265  0311                     	;# 
   266  0311                     	;# 
   267  0312                     	;# 
   268  0313                     	;# 
   269  0318                     	;# 
   270  0318                     	;# 
   271  0319                     	;# 
   272  031A                     	;# 
   273  038C                     	;# 
   274  038D                     	;# 
   275  038E                     	;# 
   276  0391                     	;# 
   277  0392                     	;# 
   278  0393                     	;# 
   279  0394                     	;# 
   280  0395                     	;# 
   281  0396                     	;# 
   282  039A                     	;# 
   283  039C                     	;# 
   284  039D                     	;# 
   285  039E                     	;# 
   286  039F                     	;# 
   287  0415                     	;# 
   288  0416                     	;# 
   289  0417                     	;# 
   290  041C                     	;# 
   291  041D                     	;# 
   292  041E                     	;# 
   293  0FE4                     	;# 
   294  0FE5                     	;# 
   295  0FE6                     	;# 
   296  0FE7                     	;# 
   297  0FE8                     	;# 
   298  0FE9                     	;# 
   299  0FEA                     	;# 
   300  0FEB                     	;# 
   301  0FED                     	;# 
   302  0FEE                     	;# 
   303  0FEF                     	;# 
   304  0000                     	;# 
   305  0001                     	;# 
   306  0002                     	;# 
   307  0003                     	;# 
   308  0004                     	;# 
   309  0005                     	;# 
   310  0006                     	;# 
   311  0007                     	;# 
   312  0008                     	;# 
   313  0009                     	;# 
   314  000A                     	;# 
   315  000B                     	;# 
   316  000C                     	;# 
   317  000D                     	;# 
   318  000E                     	;# 
   319  0011                     	;# 
   320  0012                     	;# 
   321  0013                     	;# 
   322  0014                     	;# 
   323  0015                     	;# 
   324  0016                     	;# 
   325  0016                     	;# 
   326  0017                     	;# 
   327  0018                     	;# 
   328  0019                     	;# 
   329  001A                     	;# 
   330  001B                     	;# 
   331  001C                     	;# 
   332  001E                     	;# 
   333  001F                     	;# 
   334  008C                     	;# 
   335  008D                     	;# 
   336  008E                     	;# 
   337  0091                     	;# 
   338  0092                     	;# 
   339  0093                     	;# 
   340  0094                     	;# 
   341  0095                     	;# 
   342  0096                     	;# 
   343  0097                     	;# 
   344  0098                     	;# 
   345  0099                     	;# 
   346  009A                     	;# 
   347  009B                     	;# 
   348  009B                     	;# 
   349  009C                     	;# 
   350  009D                     	;# 
   351  009E                     	;# 
   352  010C                     	;# 
   353  010D                     	;# 
   354  010E                     	;# 
   355  0111                     	;# 
   356  0112                     	;# 
   357  0113                     	;# 
   358  0114                     	;# 
   359  0115                     	;# 
   360  0116                     	;# 
   361  0117                     	;# 
   362  0118                     	;# 
   363  0119                     	;# 
   364  011A                     	;# 
   365  011B                     	;# 
   366  011D                     	;# 
   367  011E                     	;# 
   368  018C                     	;# 
   369  018D                     	;# 
   370  018E                     	;# 
   371  0191                     	;# 
   372  0191                     	;# 
   373  0192                     	;# 
   374  0193                     	;# 
   375  0193                     	;# 
   376  0193                     	;# 
   377  0194                     	;# 
   378  0195                     	;# 
   379  0196                     	;# 
   380  0199                     	;# 
   381  019A                     	;# 
   382  019B                     	;# 
   383  019B                     	;# 
   384  019B                     	;# 
   385  019B                     	;# 
   386  019C                     	;# 
   387  019C                     	;# 
   388  019D                     	;# 
   389  019E                     	;# 
   390  019F                     	;# 
   391  020C                     	;# 
   392  020D                     	;# 
   393  020E                     	;# 
   394  0211                     	;# 
   395  0211                     	;# 
   396  0212                     	;# 
   397  0212                     	;# 
   398  0213                     	;# 
   399  0213                     	;# 
   400  0214                     	;# 
   401  0214                     	;# 
   402  0215                     	;# 
   403  0215                     	;# 
   404  0215                     	;# 
   405  0216                     	;# 
   406  0216                     	;# 
   407  0217                     	;# 
   408  0217                     	;# 
   409  0219                     	;# 
   410  021A                     	;# 
   411  021B                     	;# 
   412  021C                     	;# 
   413  021D                     	;# 
   414  021E                     	;# 
   415  021F                     	;# 
   416  0291                     	;# 
   417  0291                     	;# 
   418  0292                     	;# 
   419  0293                     	;# 
   420  0294                     	;# 
   421  0295                     	;# 
   422  0295                     	;# 
   423  0296                     	;# 
   424  0298                     	;# 
   425  0298                     	;# 
   426  0299                     	;# 
   427  029A                     	;# 
   428  029B                     	;# 
   429  029C                     	;# 
   430  029D                     	;# 
   431  029E                     	;# 
   432  0311                     	;# 
   433  0311                     	;# 
   434  0312                     	;# 
   435  0313                     	;# 
   436  0318                     	;# 
   437  0318                     	;# 
   438  0319                     	;# 
   439  031A                     	;# 
   440  038C                     	;# 
   441  038D                     	;# 
   442  038E                     	;# 
   443  0391                     	;# 
   444  0392                     	;# 
   445  0393                     	;# 
   446  0394                     	;# 
   447  0395                     	;# 
   448  0396                     	;# 
   449  039A                     	;# 
   450  039C                     	;# 
   451  039D                     	;# 
   452  039E                     	;# 
   453  039F                     	;# 
   454  0415                     	;# 
   455  0416                     	;# 
   456  0417                     	;# 
   457  041C                     	;# 
   458  041D                     	;# 
   459  041E                     	;# 
   460  0FE4                     	;# 
   461  0FE5                     	;# 
   462  0FE6                     	;# 
   463  0FE7                     	;# 
   464  0FE8                     	;# 
   465  0FE9                     	;# 
   466  0FEA                     	;# 
   467  0FEB                     	;# 
   468  0FED                     	;# 
   469  0FEE                     	;# 
   470  0FEF                     	;# 
   471  0000                     	;# 
   472  0001                     	;# 
   473  0002                     	;# 
   474  0003                     	;# 
   475  0004                     	;# 
   476  0005                     	;# 
   477  0006                     	;# 
   478  0007                     	;# 
   479  0008                     	;# 
   480  0009                     	;# 
   481  000A                     	;# 
   482  000B                     	;# 
   483  000C                     	;# 
   484  000D                     	;# 
   485  000E                     	;# 
   486  0011                     	;# 
   487  0012                     	;# 
   488  0013                     	;# 
   489  0014                     	;# 
   490  0015                     	;# 
   491  0016                     	;# 
   492  0016                     	;# 
   493  0017                     	;# 
   494  0018                     	;# 
   495  0019                     	;# 
   496  001A                     	;# 
   497  001B                     	;# 
   498  001C                     	;# 
   499  001E                     	;# 
   500  001F                     	;# 
   501  008C                     	;# 
   502  008D                     	;# 
   503  008E                     	;# 
   504  0091                     	;# 
   505  0092                     	;# 
   506  0093                     	;# 
   507  0094                     	;# 
   508  0095                     	;# 
   509  0096                     	;# 
   510  0097                     	;# 
   511  0098                     	;# 
   512  0099                     	;# 
   513  009A                     	;# 
   514  009B                     	;# 
   515  009B                     	;# 
   516  009C                     	;# 
   517  009D                     	;# 
   518  009E                     	;# 
   519  010C                     	;# 
   520  010D                     	;# 
   521  010E                     	;# 
   522  0111                     	;# 
   523  0112                     	;# 
   524  0113                     	;# 
   525  0114                     	;# 
   526  0115                     	;# 
   527  0116                     	;# 
   528  0117                     	;# 
   529  0118                     	;# 
   530  0119                     	;# 
   531  011A                     	;# 
   532  011B                     	;# 
   533  011D                     	;# 
   534  011E                     	;# 
   535  018C                     	;# 
   536  018D                     	;# 
   537  018E                     	;# 
   538  0191                     	;# 
   539  0191                     	;# 
   540  0192                     	;# 
   541  0193                     	;# 
   542  0193                     	;# 
   543  0193                     	;# 
   544  0194                     	;# 
   545  0195                     	;# 
   546  0196                     	;# 
   547  0199                     	;# 
   548  019A                     	;# 
   549  019B                     	;# 
   550  019B                     	;# 
   551  019B                     	;# 
   552  019B                     	;# 
   553  019C                     	;# 
   554  019C                     	;# 
   555  019D                     	;# 
   556  019E                     	;# 
   557  019F                     	;# 
   558  020C                     	;# 
   559  020D                     	;# 
   560  020E                     	;# 
   561  0211                     	;# 
   562  0211                     	;# 
   563  0212                     	;# 
   564  0212                     	;# 
   565  0213                     	;# 
   566  0213                     	;# 
   567  0214                     	;# 
   568  0214                     	;# 
   569  0215                     	;# 
   570  0215                     	;# 
   571  0215                     	;# 
   572  0216                     	;# 
   573  0216                     	;# 
   574  0217                     	;# 
   575  0217                     	;# 
   576  0219                     	;# 
   577  021A                     	;# 
   578  021B                     	;# 
   579  021C                     	;# 
   580  021D                     	;# 
   581  021E                     	;# 
   582  021F                     	;# 
   583  0291                     	;# 
   584  0291                     	;# 
   585  0292                     	;# 
   586  0293                     	;# 
   587  0294                     	;# 
   588  0295                     	;# 
   589  0295                     	;# 
   590  0296                     	;# 
   591  0298                     	;# 
   592  0298                     	;# 
   593  0299                     	;# 
   594  029A                     	;# 
   595  029B                     	;# 
   596  029C                     	;# 
   597  029D                     	;# 
   598  029E                     	;# 
   599  0311                     	;# 
   600  0311                     	;# 
   601  0312                     	;# 
   602  0313                     	;# 
   603  0318                     	;# 
   604  0318                     	;# 
   605  0319                     	;# 
   606  031A                     	;# 
   607  038C                     	;# 
   608  038D                     	;# 
   609  038E                     	;# 
   610  0391                     	;# 
   611  0392                     	;# 
   612  0393                     	;# 
   613  0394                     	;# 
   614  0395                     	;# 
   615  0396                     	;# 
   616  039A                     	;# 
   617  039C                     	;# 
   618  039D                     	;# 
   619  039E                     	;# 
   620  039F                     	;# 
   621  0415                     	;# 
   622  0416                     	;# 
   623  0417                     	;# 
   624  041C                     	;# 
   625  041D                     	;# 
   626  041E                     	;# 
   627  0FE4                     	;# 
   628  0FE5                     	;# 
   629  0FE6                     	;# 
   630  0FE7                     	;# 
   631  0FE8                     	;# 
   632  0FE9                     	;# 
   633  0FEA                     	;# 
   634  0FEB                     	;# 
   635  0FED                     	;# 
   636  0FEE                     	;# 
   637  0FEF                     	;# 
   638  0000                     	;# 
   639  0001                     	;# 
   640  0002                     	;# 
   641  0003                     	;# 
   642  0004                     	;# 
   643  0005                     	;# 
   644  0006                     	;# 
   645  0007                     	;# 
   646  0008                     	;# 
   647  0009                     	;# 
   648  000A                     	;# 
   649  000B                     	;# 
   650  000C                     	;# 
   651  000D                     	;# 
   652  000E                     	;# 
   653  0011                     	;# 
   654  0012                     	;# 
   655  0013                     	;# 
   656  0014                     	;# 
   657  0015                     	;# 
   658  0016                     	;# 
   659  0016                     	;# 
   660  0017                     	;# 
   661  0018                     	;# 
   662  0019                     	;# 
   663  001A                     	;# 
   664  001B                     	;# 
   665  001C                     	;# 
   666  001E                     	;# 
   667  001F                     	;# 
   668  008C                     	;# 
   669  008D                     	;# 
   670  008E                     	;# 
   671  0091                     	;# 
   672  0092                     	;# 
   673  0093                     	;# 
   674  0094                     	;# 
   675  0095                     	;# 
   676  0096                     	;# 
   677  0097                     	;# 
   678  0098                     	;# 
   679  0099                     	;# 
   680  009A                     	;# 
   681  009B                     	;# 
   682  009B                     	;# 
   683  009C                     	;# 
   684  009D                     	;# 
   685  009E                     	;# 
   686  010C                     	;# 
   687  010D                     	;# 
   688  010E                     	;# 
   689  0111                     	;# 
   690  0112                     	;# 
   691  0113                     	;# 
   692  0114                     	;# 
   693  0115                     	;# 
   694  0116                     	;# 
   695  0117                     	;# 
   696  0118                     	;# 
   697  0119                     	;# 
   698  011A                     	;# 
   699  011B                     	;# 
   700  011D                     	;# 
   701  011E                     	;# 
   702  018C                     	;# 
   703  018D                     	;# 
   704  018E                     	;# 
   705  0191                     	;# 
   706  0191                     	;# 
   707  0192                     	;# 
   708  0193                     	;# 
   709  0193                     	;# 
   710  0193                     	;# 
   711  0194                     	;# 
   712  0195                     	;# 
   713  0196                     	;# 
   714  0199                     	;# 
   715  019A                     	;# 
   716  019B                     	;# 
   717  019B                     	;# 
   718  019B                     	;# 
   719  019B                     	;# 
   720  019C                     	;# 
   721  019C                     	;# 
   722  019D                     	;# 
   723  019E                     	;# 
   724  019F                     	;# 
   725  020C                     	;# 
   726  020D                     	;# 
   727  020E                     	;# 
   728  0211                     	;# 
   729  0211                     	;# 
   730  0212                     	;# 
   731  0212                     	;# 
   732  0213                     	;# 
   733  0213                     	;# 
   734  0214                     	;# 
   735  0214                     	;# 
   736  0215                     	;# 
   737  0215                     	;# 
   738  0215                     	;# 
   739  0216                     	;# 
   740  0216                     	;# 
   741  0217                     	;# 
   742  0217                     	;# 
   743  0219                     	;# 
   744  021A                     	;# 
   745  021B                     	;# 
   746  021C                     	;# 
   747  021D                     	;# 
   748  021E                     	;# 
   749  021F                     	;# 
   750  0291                     	;# 
   751  0291                     	;# 
   752  0292                     	;# 
   753  0293                     	;# 
   754  0294                     	;# 
   755  0295                     	;# 
   756  0295                     	;# 
   757  0296                     	;# 
   758  0298                     	;# 
   759  0298                     	;# 
   760  0299                     	;# 
   761  029A                     	;# 
   762  029B                     	;# 
   763  029C                     	;# 
   764  029D                     	;# 
   765  029E                     	;# 
   766  0311                     	;# 
   767  0311                     	;# 
   768  0312                     	;# 
   769  0313                     	;# 
   770  0318                     	;# 
   771  0318                     	;# 
   772  0319                     	;# 
   773  031A                     	;# 
   774  038C                     	;# 
   775  038D                     	;# 
   776  038E                     	;# 
   777  0391                     	;# 
   778  0392                     	;# 
   779  0393                     	;# 
   780  0394                     	;# 
   781  0395                     	;# 
   782  0396                     	;# 
   783  039A                     	;# 
   784  039C                     	;# 
   785  039D                     	;# 
   786  039E                     	;# 
   787  039F                     	;# 
   788  0415                     	;# 
   789  0416                     	;# 
   790  0417                     	;# 
   791  041C                     	;# 
   792  041D                     	;# 
   793  041E                     	;# 
   794  0FE4                     	;# 
   795  0FE5                     	;# 
   796  0FE6                     	;# 
   797  0FE7                     	;# 
   798  0FE8                     	;# 
   799  0FE9                     	;# 
   800  0FEA                     	;# 
   801  0FEB                     	;# 
   802  0FED                     	;# 
   803  0FEE                     	;# 
   804  0FEF                     	;# 
   805  0000                     	;# 
   806  0001                     	;# 
   807  0002                     	;# 
   808  0003                     	;# 
   809  0004                     	;# 
   810  0005                     	;# 
   811  0006                     	;# 
   812  0007                     	;# 
   813  0008                     	;# 
   814  0009                     	;# 
   815  000A                     	;# 
   816  000B                     	;# 
   817  000C                     	;# 
   818  000D                     	;# 
   819  000E                     	;# 
   820  0011                     	;# 
   821  0012                     	;# 
   822  0013                     	;# 
   823  0014                     	;# 
   824  0015                     	;# 
   825  0016                     	;# 
   826  0016                     	;# 
   827  0017                     	;# 
   828  0018                     	;# 
   829  0019                     	;# 
   830  001A                     	;# 
   831  001B                     	;# 
   832  001C                     	;# 
   833  001E                     	;# 
   834  001F                     	;# 
   835  008C                     	;# 
   836  008D                     	;# 
   837  008E                     	;# 
   838  0091                     	;# 
   839  0092                     	;# 
   840  0093                     	;# 
   841  0094                     	;# 
   842  0095                     	;# 
   843  0096                     	;# 
   844  0097                     	;# 
   845  0098                     	;# 
   846  0099                     	;# 
   847  009A                     	;# 
   848  009B                     	;# 
   849  009B                     	;# 
   850  009C                     	;# 
   851  009D                     	;# 
   852  009E                     	;# 
   853  010C                     	;# 
   854  010D                     	;# 
   855  010E                     	;# 
   856  0111                     	;# 
   857  0112                     	;# 
   858  0113                     	;# 
   859  0114                     	;# 
   860  0115                     	;# 
   861  0116                     	;# 
   862  0117                     	;# 
   863  0118                     	;# 
   864  0119                     	;# 
   865  011A                     	;# 
   866  011B                     	;# 
   867  011D                     	;# 
   868  011E                     	;# 
   869  018C                     	;# 
   870  018D                     	;# 
   871  018E                     	;# 
   872  0191                     	;# 
   873  0191                     	;# 
   874  0192                     	;# 
   875  0193                     	;# 
   876  0193                     	;# 
   877  0193                     	;# 
   878  0194                     	;# 
   879  0195                     	;# 
   880  0196                     	;# 
   881  0199                     	;# 
   882  019A                     	;# 
   883  019B                     	;# 
   884  019B                     	;# 
   885  019B                     	;# 
   886  019B                     	;# 
   887  019C                     	;# 
   888  019C                     	;# 
   889  019D                     	;# 
   890  019E                     	;# 
   891  019F                     	;# 
   892  020C                     	;# 
   893  020D                     	;# 
   894  020E                     	;# 
   895  0211                     	;# 
   896  0211                     	;# 
   897  0212                     	;# 
   898  0212                     	;# 
   899  0213                     	;# 
   900  0213                     	;# 
   901  0214                     	;# 
   902  0214                     	;# 
   903  0215                     	;# 
   904  0215                     	;# 
   905  0215                     	;# 
   906  0216                     	;# 
   907  0216                     	;# 
   908  0217                     	;# 
   909  0217                     	;# 
   910  0219                     	;# 
   911  021A                     	;# 
   912  021B                     	;# 
   913  021C                     	;# 
   914  021D                     	;# 
   915  021E                     	;# 
   916  021F                     	;# 
   917  0291                     	;# 
   918  0291                     	;# 
   919  0292                     	;# 
   920  0293                     	;# 
   921  0294                     	;# 
   922  0295                     	;# 
   923  0295                     	;# 
   924  0296                     	;# 
   925  0298                     	;# 
   926  0298                     	;# 
   927  0299                     	;# 
   928  029A                     	;# 
   929  029B                     	;# 
   930  029C                     	;# 
   931  029D                     	;# 
   932  029E                     	;# 
   933  0311                     	;# 
   934  0311                     	;# 
   935  0312                     	;# 
   936  0313                     	;# 
   937  0318                     	;# 
   938  0318                     	;# 
   939  0319                     	;# 
   940  031A                     	;# 
   941  038C                     	;# 
   942  038D                     	;# 
   943  038E                     	;# 
   944  0391                     	;# 
   945  0392                     	;# 
   946  0393                     	;# 
   947  0394                     	;# 
   948  0395                     	;# 
   949  0396                     	;# 
   950  039A                     	;# 
   951  039C                     	;# 
   952  039D                     	;# 
   953  039E                     	;# 
   954  039F                     	;# 
   955  0415                     	;# 
   956  0416                     	;# 
   957  0417                     	;# 
   958  041C                     	;# 
   959  041D                     	;# 
   960  041E                     	;# 
   961  0FE4                     	;# 
   962  0FE5                     	;# 
   963  0FE6                     	;# 
   964  0FE7                     	;# 
   965  0FE8                     	;# 
   966  0FE9                     	;# 
   967  0FEA                     	;# 
   968  0FEB                     	;# 
   969  0FED                     	;# 
   970  0FEE                     	;# 
   971  0FEF                     	;# 
   972  0000                     	;# 
   973  0001                     	;# 
   974  0002                     	;# 
   975  0003                     	;# 
   976  0004                     	;# 
   977  0005                     	;# 
   978  0006                     	;# 
   979  0007                     	;# 
   980  0008                     	;# 
   981  0009                     	;# 
   982  000A                     	;# 
   983  000B                     	;# 
   984  000C                     	;# 
   985  000D                     	;# 
   986  000E                     	;# 
   987  0011                     	;# 
   988  0012                     	;# 
   989  0013                     	;# 
   990  0014                     	;# 
   991  0015                     	;# 
   992  0016                     	;# 
   993  0016                     	;# 
   994  0017                     	;# 
   995  0018                     	;# 
   996  0019                     	;# 
   997  001A                     	;# 
   998  001B                     	;# 
   999  001C                     	;# 
  1000  001E                     	;# 
  1001  001F                     	;# 
  1002  008C                     	;# 
  1003  008D                     	;# 
  1004  008E                     	;# 
  1005  0091                     	;# 
  1006  0092                     	;# 
  1007  0093                     	;# 
  1008  0094                     	;# 
  1009  0095                     	;# 
  1010  0096                     	;# 
  1011  0097                     	;# 
  1012  0098                     	;# 
  1013  0099                     	;# 
  1014  009A                     	;# 
  1015  009B                     	;# 
  1016  009B                     	;# 
  1017  009C                     	;# 
  1018  009D                     	;# 
  1019  009E                     	;# 
  1020  010C                     	;# 
  1021  010D                     	;# 
  1022  010E                     	;# 
  1023  0111                     	;# 
  1024  0112                     	;# 
  1025  0113                     	;# 
  1026  0114                     	;# 
  1027  0115                     	;# 
  1028  0116                     	;# 
  1029  0117                     	;# 
  1030  0118                     	;# 
  1031  0119                     	;# 
  1032  011A                     	;# 
  1033  011B                     	;# 
  1034  011D                     	;# 
  1035  011E                     	;# 
  1036  018C                     	;# 
  1037  018D                     	;# 
  1038  018E                     	;# 
  1039  0191                     	;# 
  1040  0191                     	;# 
  1041  0192                     	;# 
  1042  0193                     	;# 
  1043  0193                     	;# 
  1044  0193                     	;# 
  1045  0194                     	;# 
  1046  0195                     	;# 
  1047  0196                     	;# 
  1048  0199                     	;# 
  1049  019A                     	;# 
  1050  019B                     	;# 
  1051  019B                     	;# 
  1052  019B                     	;# 
  1053  019B                     	;# 
  1054  019C                     	;# 
  1055  019C                     	;# 
  1056  019D                     	;# 
  1057  019E                     	;# 
  1058  019F                     	;# 
  1059  020C                     	;# 
  1060  020D                     	;# 
  1061  020E                     	;# 
  1062  0211                     	;# 
  1063  0211                     	;# 
  1064  0212                     	;# 
  1065  0212                     	;# 
  1066  0213                     	;# 
  1067  0213                     	;# 
  1068  0214                     	;# 
  1069  0214                     	;# 
  1070  0215                     	;# 
  1071  0215                     	;# 
  1072  0215                     	;# 
  1073  0216                     	;# 
  1074  0216                     	;# 
  1075  0217                     	;# 
  1076  0217                     	;# 
  1077  0219                     	;# 
  1078  021A                     	;# 
  1079  021B                     	;# 
  1080  021C                     	;# 
  1081  021D                     	;# 
  1082  021E                     	;# 
  1083  021F                     	;# 
  1084  0291                     	;# 
  1085  0291                     	;# 
  1086  0292                     	;# 
  1087  0293                     	;# 
  1088  0294                     	;# 
  1089  0295                     	;# 
  1090  0295                     	;# 
  1091  0296                     	;# 
  1092  0298                     	;# 
  1093  0298                     	;# 
  1094  0299                     	;# 
  1095  029A                     	;# 
  1096  029B                     	;# 
  1097  029C                     	;# 
  1098  029D                     	;# 
  1099  029E                     	;# 
  1100  0311                     	;# 
  1101  0311                     	;# 
  1102  0312                     	;# 
  1103  0313                     	;# 
  1104  0318                     	;# 
  1105  0318                     	;# 
  1106  0319                     	;# 
  1107  031A                     	;# 
  1108  038C                     	;# 
  1109  038D                     	;# 
  1110  038E                     	;# 
  1111  0391                     	;# 
  1112  0392                     	;# 
  1113  0393                     	;# 
  1114  0394                     	;# 
  1115  0395                     	;# 
  1116  0396                     	;# 
  1117  039A                     	;# 
  1118  039C                     	;# 
  1119  039D                     	;# 
  1120  039E                     	;# 
  1121  039F                     	;# 
  1122  0415                     	;# 
  1123  0416                     	;# 
  1124  0417                     	;# 
  1125  041C                     	;# 
  1126  041D                     	;# 
  1127  041E                     	;# 
  1128  0FE4                     	;# 
  1129  0FE5                     	;# 
  1130  0FE6                     	;# 
  1131  0FE7                     	;# 
  1132  0FE8                     	;# 
  1133  0FE9                     	;# 
  1134  0FEA                     	;# 
  1135  0FEB                     	;# 
  1136  0FED                     	;# 
  1137  0FEE                     	;# 
  1138  0FEF                     	;# 
  1139  0000                     	;# 
  1140  0001                     	;# 
  1141  0002                     	;# 
  1142  0003                     	;# 
  1143  0004                     	;# 
  1144  0005                     	;# 
  1145  0006                     	;# 
  1146  0007                     	;# 
  1147  0008                     	;# 
  1148  0009                     	;# 
  1149  000A                     	;# 
  1150  000B                     	;# 
  1151  000C                     	;# 
  1152  000D                     	;# 
  1153  000E                     	;# 
  1154  0011                     	;# 
  1155  0012                     	;# 
  1156  0013                     	;# 
  1157  0014                     	;# 
  1158  0015                     	;# 
  1159  0016                     	;# 
  1160  0016                     	;# 
  1161  0017                     	;# 
  1162  0018                     	;# 
  1163  0019                     	;# 
  1164  001A                     	;# 
  1165  001B                     	;# 
  1166  001C                     	;# 
  1167  001E                     	;# 
  1168  001F                     	;# 
  1169  008C                     	;# 
  1170  008D                     	;# 
  1171  008E                     	;# 
  1172  0091                     	;# 
  1173  0092                     	;# 
  1174  0093                     	;# 
  1175  0094                     	;# 
  1176  0095                     	;# 
  1177  0096                     	;# 
  1178  0097                     	;# 
  1179  0098                     	;# 
  1180  0099                     	;# 
  1181  009A                     	;# 
  1182  009B                     	;# 
  1183  009B                     	;# 
  1184  009C                     	;# 
  1185  009D                     	;# 
  1186  009E                     	;# 
  1187  010C                     	;# 
  1188  010D                     	;# 
  1189  010E                     	;# 
  1190  0111                     	;# 
  1191  0112                     	;# 
  1192  0113                     	;# 
  1193  0114                     	;# 
  1194  0115                     	;# 
  1195  0116                     	;# 
  1196  0117                     	;# 
  1197  0118                     	;# 
  1198  0119                     	;# 
  1199  011A                     	;# 
  1200  011B                     	;# 
  1201  011D                     	;# 
  1202  011E                     	;# 
  1203  018C                     	;# 
  1204  018D                     	;# 
  1205  018E                     	;# 
  1206  0191                     	;# 
  1207  0191                     	;# 
  1208  0192                     	;# 
  1209  0193                     	;# 
  1210  0193                     	;# 
  1211  0193                     	;# 
  1212  0194                     	;# 
  1213  0195                     	;# 
  1214  0196                     	;# 
  1215  0199                     	;# 
  1216  019A                     	;# 
  1217  019B                     	;# 
  1218  019B                     	;# 
  1219  019B                     	;# 
  1220  019B                     	;# 
  1221  019C                     	;# 
  1222  019C                     	;# 
  1223  019D                     	;# 
  1224  019E                     	;# 
  1225  019F                     	;# 
  1226  020C                     	;# 
  1227  020D                     	;# 
  1228  020E                     	;# 
  1229  0211                     	;# 
  1230  0211                     	;# 
  1231  0212                     	;# 
  1232  0212                     	;# 
  1233  0213                     	;# 
  1234  0213                     	;# 
  1235  0214                     	;# 
  1236  0214                     	;# 
  1237  0215                     	;# 
  1238  0215                     	;# 
  1239  0215                     	;# 
  1240  0216                     	;# 
  1241  0216                     	;# 
  1242  0217                     	;# 
  1243  0217                     	;# 
  1244  0219                     	;# 
  1245  021A                     	;# 
  1246  021B                     	;# 
  1247  021C                     	;# 
  1248  021D                     	;# 
  1249  021E                     	;# 
  1250  021F                     	;# 
  1251  0291                     	;# 
  1252  0291                     	;# 
  1253  0292                     	;# 
  1254  0293                     	;# 
  1255  0294                     	;# 
  1256  0295                     	;# 
  1257  0295                     	;# 
  1258  0296                     	;# 
  1259  0298                     	;# 
  1260  0298                     	;# 
  1261  0299                     	;# 
  1262  029A                     	;# 
  1263  029B                     	;# 
  1264  029C                     	;# 
  1265  029D                     	;# 
  1266  029E                     	;# 
  1267  0311                     	;# 
  1268  0311                     	;# 
  1269  0312                     	;# 
  1270  0313                     	;# 
  1271  0318                     	;# 
  1272  0318                     	;# 
  1273  0319                     	;# 
  1274  031A                     	;# 
  1275  038C                     	;# 
  1276  038D                     	;# 
  1277  038E                     	;# 
  1278  0391                     	;# 
  1279  0392                     	;# 
  1280  0393                     	;# 
  1281  0394                     	;# 
  1282  0395                     	;# 
  1283  0396                     	;# 
  1284  039A                     	;# 
  1285  039C                     	;# 
  1286  039D                     	;# 
  1287  039E                     	;# 
  1288  039F                     	;# 
  1289  0415                     	;# 
  1290  0416                     	;# 
  1291  0417                     	;# 
  1292  041C                     	;# 
  1293  041D                     	;# 
  1294  041E                     	;# 
  1295  0FE4                     	;# 
  1296  0FE5                     	;# 
  1297  0FE6                     	;# 
  1298  0FE7                     	;# 
  1299  0FE8                     	;# 
  1300  0FE9                     	;# 
  1301  0FEA                     	;# 
  1302  0FEB                     	;# 
  1303  0FED                     	;# 
  1304  0FEE                     	;# 
  1305  0FEF                     	;# 
  1306  0000                     	;# 
  1307  0001                     	;# 
  1308  0002                     	;# 
  1309  0003                     	;# 
  1310  0004                     	;# 
  1311  0005                     	;# 
  1312  0006                     	;# 
  1313  0007                     	;# 
  1314  0008                     	;# 
  1315  0009                     	;# 
  1316  000A                     	;# 
  1317  000B                     	;# 
  1318  000C                     	;# 
  1319  000D                     	;# 
  1320  000E                     	;# 
  1321  0011                     	;# 
  1322  0012                     	;# 
  1323  0013                     	;# 
  1324  0014                     	;# 
  1325  0015                     	;# 
  1326  0016                     	;# 
  1327  0016                     	;# 
  1328  0017                     	;# 
  1329  0018                     	;# 
  1330  0019                     	;# 
  1331  001A                     	;# 
  1332  001B                     	;# 
  1333  001C                     	;# 
  1334  001E                     	;# 
  1335  001F                     	;# 
  1336  008C                     	;# 
  1337  008D                     	;# 
  1338  008E                     	;# 
  1339  0091                     	;# 
  1340  0092                     	;# 
  1341  0093                     	;# 
  1342  0094                     	;# 
  1343  0095                     	;# 
  1344  0096                     	;# 
  1345  0097                     	;# 
  1346  0098                     	;# 
  1347  0099                     	;# 
  1348  009A                     	;# 
  1349  009B                     	;# 
  1350  009B                     	;# 
  1351  009C                     	;# 
  1352  009D                     	;# 
  1353  009E                     	;# 
  1354  010C                     	;# 
  1355  010D                     	;# 
  1356  010E                     	;# 
  1357  0111                     	;# 
  1358  0112                     	;# 
  1359  0113                     	;# 
  1360  0114                     	;# 
  1361  0115                     	;# 
  1362  0116                     	;# 
  1363  0117                     	;# 
  1364  0118                     	;# 
  1365  0119                     	;# 
  1366  011A                     	;# 
  1367  011B                     	;# 
  1368  011D                     	;# 
  1369  011E                     	;# 
  1370  018C                     	;# 
  1371  018D                     	;# 
  1372  018E                     	;# 
  1373  0191                     	;# 
  1374  0191                     	;# 
  1375  0192                     	;# 
  1376  0193                     	;# 
  1377  0193                     	;# 
  1378  0193                     	;# 
  1379  0194                     	;# 
  1380  0195                     	;# 
  1381  0196                     	;# 
  1382  0199                     	;# 
  1383  019A                     	;# 
  1384  019B                     	;# 
  1385  019B                     	;# 
  1386  019B                     	;# 
  1387  019B                     	;# 
  1388  019C                     	;# 
  1389  019C                     	;# 
  1390  019D                     	;# 
  1391  019E                     	;# 
  1392  019F                     	;# 
  1393  020C                     	;# 
  1394  020D                     	;# 
  1395  020E                     	;# 
  1396  0211                     	;# 
  1397  0211                     	;# 
  1398  0212                     	;# 
  1399  0212                     	;# 
  1400  0213                     	;# 
  1401  0213                     	;# 
  1402  0214                     	;# 
  1403  0214                     	;# 
  1404  0215                     	;# 
  1405  0215                     	;# 
  1406  0215                     	;# 
  1407  0216                     	;# 
  1408  0216                     	;# 
  1409  0217                     	;# 
  1410  0217                     	;# 
  1411  0219                     	;# 
  1412  021A                     	;# 
  1413  021B                     	;# 
  1414  021C                     	;# 
  1415  021D                     	;# 
  1416  021E                     	;# 
  1417  021F                     	;# 
  1418  0291                     	;# 
  1419  0291                     	;# 
  1420  0292                     	;# 
  1421  0293                     	;# 
  1422  0294                     	;# 
  1423  0295                     	;# 
  1424  0295                     	;# 
  1425  0296                     	;# 
  1426  0298                     	;# 
  1427  0298                     	;# 
  1428  0299                     	;# 
  1429  029A                     	;# 
  1430  029B                     	;# 
  1431  029C                     	;# 
  1432  029D                     	;# 
  1433  029E                     	;# 
  1434  0311                     	;# 
  1435  0311                     	;# 
  1436  0312                     	;# 
  1437  0313                     	;# 
  1438  0318                     	;# 
  1439  0318                     	;# 
  1440  0319                     	;# 
  1441  031A                     	;# 
  1442  038C                     	;# 
  1443  038D                     	;# 
  1444  038E                     	;# 
  1445  0391                     	;# 
  1446  0392                     	;# 
  1447  0393                     	;# 
  1448  0394                     	;# 
  1449  0395                     	;# 
  1450  0396                     	;# 
  1451  039A                     	;# 
  1452  039C                     	;# 
  1453  039D                     	;# 
  1454  039E                     	;# 
  1455  039F                     	;# 
  1456  0415                     	;# 
  1457  0416                     	;# 
  1458  0417                     	;# 
  1459  041C                     	;# 
  1460  041D                     	;# 
  1461  041E                     	;# 
  1462  0FE4                     	;# 
  1463  0FE5                     	;# 
  1464  0FE6                     	;# 
  1465  0FE7                     	;# 
  1466  0FE8                     	;# 
  1467  0FE9                     	;# 
  1468  0FEA                     	;# 
  1469  0FEB                     	;# 
  1470  0FED                     	;# 
  1471  0FEE                     	;# 
  1472  0FEF                     	;# 
  1473  0000                     	;# 
  1474  0001                     	;# 
  1475  0002                     	;# 
  1476  0003                     	;# 
  1477  0004                     	;# 
  1478  0005                     	;# 
  1479  0006                     	;# 
  1480  0007                     	;# 
  1481  0008                     	;# 
  1482  0009                     	;# 
  1483  000A                     	;# 
  1484  000B                     	;# 
  1485  000C                     	;# 
  1486  000D                     	;# 
  1487  000E                     	;# 
  1488  0011                     	;# 
  1489  0012                     	;# 
  1490  0013                     	;# 
  1491  0014                     	;# 
  1492  0015                     	;# 
  1493  0016                     	;# 
  1494  0016                     	;# 
  1495  0017                     	;# 
  1496  0018                     	;# 
  1497  0019                     	;# 
  1498  001A                     	;# 
  1499  001B                     	;# 
  1500  001C                     	;# 
  1501  001E                     	;# 
  1502  001F                     	;# 
  1503  008C                     	;# 
  1504  008D                     	;# 
  1505  008E                     	;# 
  1506  0091                     	;# 
  1507  0092                     	;# 
  1508  0093                     	;# 
  1509  0094                     	;# 
  1510  0095                     	;# 
  1511  0096                     	;# 
  1512  0097                     	;# 
  1513  0098                     	;# 
  1514  0099                     	;# 
  1515  009A                     	;# 
  1516  009B                     	;# 
  1517  009B                     	;# 
  1518  009C                     	;# 
  1519  009D                     	;# 
  1520  009E                     	;# 
  1521  010C                     	;# 
  1522  010D                     	;# 
  1523  010E                     	;# 
  1524  0111                     	;# 
  1525  0112                     	;# 
  1526  0113                     	;# 
  1527  0114                     	;# 
  1528  0115                     	;# 
  1529  0116                     	;# 
  1530  0117                     	;# 
  1531  0118                     	;# 
  1532  0119                     	;# 
  1533  011A                     	;# 
  1534  011B                     	;# 
  1535  011D                     	;# 
  1536  011E                     	;# 
  1537  018C                     	;# 
  1538  018D                     	;# 
  1539  018E                     	;# 
  1540  0191                     	;# 
  1541  0191                     	;# 
  1542  0192                     	;# 
  1543  0193                     	;# 
  1544  0193                     	;# 
  1545  0193                     	;# 
  1546  0194                     	;# 
  1547  0195                     	;# 
  1548  0196                     	;# 
  1549  0199                     	;# 
  1550  019A                     	;# 
  1551  019B                     	;# 
  1552  019B                     	;# 
  1553  019B                     	;# 
  1554  019B                     	;# 
  1555  019C                     	;# 
  1556  019C                     	;# 
  1557  019D                     	;# 
  1558  019E                     	;# 
  1559  019F                     	;# 
  1560  020C                     	;# 
  1561  020D                     	;# 
  1562  020E                     	;# 
  1563  0211                     	;# 
  1564  0211                     	;# 
  1565  0212                     	;# 
  1566  0212                     	;# 
  1567  0213                     	;# 
  1568  0213                     	;# 
  1569  0214                     	;# 
  1570  0214                     	;# 
  1571  0215                     	;# 
  1572  0215                     	;# 
  1573  0215                     	;# 
  1574  0216                     	;# 
  1575  0216                     	;# 
  1576  0217                     	;# 
  1577  0217                     	;# 
  1578  0219                     	;# 
  1579  021A                     	;# 
  1580  021B                     	;# 
  1581  021C                     	;# 
  1582  021D                     	;# 
  1583  021E                     	;# 
  1584  021F                     	;# 
  1585  0291                     	;# 
  1586  0291                     	;# 
  1587  0292                     	;# 
  1588  0293                     	;# 
  1589  0294                     	;# 
  1590  0295                     	;# 
  1591  0295                     	;# 
  1592  0296                     	;# 
  1593  0298                     	;# 
  1594  0298                     	;# 
  1595  0299                     	;# 
  1596  029A                     	;# 
  1597  029B                     	;# 
  1598  029C                     	;# 
  1599  029D                     	;# 
  1600  029E                     	;# 
  1601  0311                     	;# 
  1602  0311                     	;# 
  1603  0312                     	;# 
  1604  0313                     	;# 
  1605  0318                     	;# 
  1606  0318                     	;# 
  1607  0319                     	;# 
  1608  031A                     	;# 
  1609  038C                     	;# 
  1610  038D                     	;# 
  1611  038E                     	;# 
  1612  0391                     	;# 
  1613  0392                     	;# 
  1614  0393                     	;# 
  1615  0394                     	;# 
  1616  0395                     	;# 
  1617  0396                     	;# 
  1618  039A                     	;# 
  1619  039C                     	;# 
  1620  039D                     	;# 
  1621  039E                     	;# 
  1622  039F                     	;# 
  1623  0415                     	;# 
  1624  0416                     	;# 
  1625  0417                     	;# 
  1626  041C                     	;# 
  1627  041D                     	;# 
  1628  041E                     	;# 
  1629  0FE4                     	;# 
  1630  0FE5                     	;# 
  1631  0FE6                     	;# 
  1632  0FE7                     	;# 
  1633  0FE8                     	;# 
  1634  0FE9                     	;# 
  1635  0FEA                     	;# 
  1636  0FEB                     	;# 
  1637  0FED                     	;# 
  1638  0FEE                     	;# 
  1639  0FEF                     	;# 
  1640  0000                     	;# 
  1641  0001                     	;# 
  1642  0002                     	;# 
  1643  0003                     	;# 
  1644  0004                     	;# 
  1645  0005                     	;# 
  1646  0006                     	;# 
  1647  0007                     	;# 
  1648  0008                     	;# 
  1649  0009                     	;# 
  1650  000A                     	;# 
  1651  000B                     	;# 
  1652  000C                     	;# 
  1653  000D                     	;# 
  1654  000E                     	;# 
  1655  0011                     	;# 
  1656  0012                     	;# 
  1657  0013                     	;# 
  1658  0014                     	;# 
  1659  0015                     	;# 
  1660  0016                     	;# 
  1661  0016                     	;# 
  1662  0017                     	;# 
  1663  0018                     	;# 
  1664  0019                     	;# 
  1665  001A                     	;# 
  1666  001B                     	;# 
  1667  001C                     	;# 
  1668  001E                     	;# 
  1669  001F                     	;# 
  1670  008C                     	;# 
  1671  008D                     	;# 
  1672  008E                     	;# 
  1673  0091                     	;# 
  1674  0092                     	;# 
  1675  0093                     	;# 
  1676  0094                     	;# 
  1677  0095                     	;# 
  1678  0096                     	;# 
  1679  0097                     	;# 
  1680  0098                     	;# 
  1681  0099                     	;# 
  1682  009A                     	;# 
  1683  009B                     	;# 
  1684  009B                     	;# 
  1685  009C                     	;# 
  1686  009D                     	;# 
  1687  009E                     	;# 
  1688  010C                     	;# 
  1689  010D                     	;# 
  1690  010E                     	;# 
  1691  0111                     	;# 
  1692  0112                     	;# 
  1693  0113                     	;# 
  1694  0114                     	;# 
  1695  0115                     	;# 
  1696  0116                     	;# 
  1697  0117                     	;# 
  1698  0118                     	;# 
  1699  0119                     	;# 
  1700  011A                     	;# 
  1701  011B                     	;# 
  1702  011D                     	;# 
  1703  011E                     	;# 
  1704  018C                     	;# 
  1705  018D                     	;# 
  1706  018E                     	;# 
  1707  0191                     	;# 
  1708  0191                     	;# 
  1709  0192                     	;# 
  1710  0193                     	;# 
  1711  0193                     	;# 
  1712  0193                     	;# 
  1713  0194                     	;# 
  1714  0195                     	;# 
  1715  0196                     	;# 
  1716  0199                     	;# 
  1717  019A                     	;# 
  1718  019B                     	;# 
  1719  019B                     	;# 
  1720  019B                     	;# 
  1721  019B                     	;# 
  1722  019C                     	;# 
  1723  019C                     	;# 
  1724  019D                     	;# 
  1725  019E                     	;# 
  1726  019F                     	;# 
  1727  020C                     	;# 
  1728  020D                     	;# 
  1729  020E                     	;# 
  1730  0211                     	;# 
  1731  0211                     	;# 
  1732  0212                     	;# 
  1733  0212                     	;# 
  1734  0213                     	;# 
  1735  0213                     	;# 
  1736  0214                     	;# 
  1737  0214                     	;# 
  1738  0215                     	;# 
  1739  0215                     	;# 
  1740  0215                     	;# 
  1741  0216                     	;# 
  1742  0216                     	;# 
  1743  0217                     	;# 
  1744  0217                     	;# 
  1745  0219                     	;# 
  1746  021A                     	;# 
  1747  021B                     	;# 
  1748  021C                     	;# 
  1749  021D                     	;# 
  1750  021E                     	;# 
  1751  021F                     	;# 
  1752  0291                     	;# 
  1753  0291                     	;# 
  1754  0292                     	;# 
  1755  0293                     	;# 
  1756  0294                     	;# 
  1757  0295                     	;# 
  1758  0295                     	;# 
  1759  0296                     	;# 
  1760  0298                     	;# 
  1761  0298                     	;# 
  1762  0299                     	;# 
  1763  029A                     	;# 
  1764  029B                     	;# 
  1765  029C                     	;# 
  1766  029D                     	;# 
  1767  029E                     	;# 
  1768  0311                     	;# 
  1769  0311                     	;# 
  1770  0312                     	;# 
  1771  0313                     	;# 
  1772  0318                     	;# 
  1773  0318                     	;# 
  1774  0319                     	;# 
  1775  031A                     	;# 
  1776  038C                     	;# 
  1777  038D                     	;# 
  1778  038E                     	;# 
  1779  0391                     	;# 
  1780  0392                     	;# 
  1781  0393                     	;# 
  1782  0394                     	;# 
  1783  0395                     	;# 
  1784  0396                     	;# 
  1785  039A                     	;# 
  1786  039C                     	;# 
  1787  039D                     	;# 
  1788  039E                     	;# 
  1789  039F                     	;# 
  1790  0415                     	;# 
  1791  0416                     	;# 
  1792  0417                     	;# 
  1793  041C                     	;# 
  1794  041D                     	;# 
  1795  041E                     	;# 
  1796  0FE4                     	;# 
  1797  0FE5                     	;# 
  1798  0FE6                     	;# 
  1799  0FE7                     	;# 
  1800  0FE8                     	;# 
  1801  0FE9                     	;# 
  1802  0FEA                     	;# 
  1803  0FEB                     	;# 
  1804  0FED                     	;# 
  1805  0FEE                     	;# 
  1806  0FEF                     	;# 
  1807  0000                     	;# 
  1808  0001                     	;# 
  1809  0002                     	;# 
  1810  0003                     	;# 
  1811  0004                     	;# 
  1812  0005                     	;# 
  1813  0006                     	;# 
  1814  0007                     	;# 
  1815  0008                     	;# 
  1816  0009                     	;# 
  1817  000A                     	;# 
  1818  000B                     	;# 
  1819  000C                     	;# 
  1820  000D                     	;# 
  1821  000E                     	;# 
  1822  0011                     	;# 
  1823  0012                     	;# 
  1824  0013                     	;# 
  1825  0014                     	;# 
  1826  0015                     	;# 
  1827  0016                     	;# 
  1828  0016                     	;# 
  1829  0017                     	;# 
  1830  0018                     	;# 
  1831  0019                     	;# 
  1832  001A                     	;# 
  1833  001B                     	;# 
  1834  001C                     	;# 
  1835  001E                     	;# 
  1836  001F                     	;# 
  1837  008C                     	;# 
  1838  008D                     	;# 
  1839  008E                     	;# 
  1840  0091                     	;# 
  1841  0092                     	;# 
  1842  0093                     	;# 
  1843  0094                     	;# 
  1844  0095                     	;# 
  1845  0096                     	;# 
  1846  0097                     	;# 
  1847  0098                     	;# 
  1848  0099                     	;# 
  1849  009A                     	;# 
  1850  009B                     	;# 
  1851  009B                     	;# 
  1852  009C                     	;# 
  1853  009D                     	;# 
  1854  009E                     	;# 
  1855  010C                     	;# 
  1856  010D                     	;# 
  1857  010E                     	;# 
  1858  0111                     	;# 
  1859  0112                     	;# 
  1860  0113                     	;# 
  1861  0114                     	;# 
  1862  0115                     	;# 
  1863  0116                     	;# 
  1864  0117                     	;# 
  1865  0118                     	;# 
  1866  0119                     	;# 
  1867  011A                     	;# 
  1868  011B                     	;# 
  1869  011D                     	;# 
  1870  011E                     	;# 
  1871  018C                     	;# 
  1872  018D                     	;# 
  1873  018E                     	;# 
  1874  0191                     	;# 
  1875  0191                     	;# 
  1876  0192                     	;# 
  1877  0193                     	;# 
  1878  0193                     	;# 
  1879  0193                     	;# 
  1880  0194                     	;# 
  1881  0195                     	;# 
  1882  0196                     	;# 
  1883  0199                     	;# 
  1884  019A                     	;# 
  1885  019B                     	;# 
  1886  019B                     	;# 
  1887  019B                     	;# 
  1888  019B                     	;# 
  1889  019C                     	;# 
  1890  019C                     	;# 
  1891  019D                     	;# 
  1892  019E                     	;# 
  1893  019F                     	;# 
  1894  020C                     	;# 
  1895  020D                     	;# 
  1896  020E                     	;# 
  1897  0211                     	;# 
  1898  0211                     	;# 
  1899  0212                     	;# 
  1900  0212                     	;# 
  1901  0213                     	;# 
  1902  0213                     	;# 
  1903  0214                     	;# 
  1904  0214                     	;# 
  1905  0215                     	;# 
  1906  0215                     	;# 
  1907  0215                     	;# 
  1908  0216                     	;# 
  1909  0216                     	;# 
  1910  0217                     	;# 
  1911  0217                     	;# 
  1912  0219                     	;# 
  1913  021A                     	;# 
  1914  021B                     	;# 
  1915  021C                     	;# 
  1916  021D                     	;# 
  1917  021E                     	;# 
  1918  021F                     	;# 
  1919  0291                     	;# 
  1920  0291                     	;# 
  1921  0292                     	;# 
  1922  0293                     	;# 
  1923  0294                     	;# 
  1924  0295                     	;# 
  1925  0295                     	;# 
  1926  0296                     	;# 
  1927  0298                     	;# 
  1928  0298                     	;# 
  1929  0299                     	;# 
  1930  029A                     	;# 
  1931  029B                     	;# 
  1932  029C                     	;# 
  1933  029D                     	;# 
  1934  029E                     	;# 
  1935  0311                     	;# 
  1936  0311                     	;# 
  1937  0312                     	;# 
  1938  0313                     	;# 
  1939  0318                     	;# 
  1940  0318                     	;# 
  1941  0319                     	;# 
  1942  031A                     	;# 
  1943  038C                     	;# 
  1944  038D                     	;# 
  1945  038E                     	;# 
  1946  0391                     	;# 
  1947  0392                     	;# 
  1948  0393                     	;# 
  1949  0394                     	;# 
  1950  0395                     	;# 
  1951  0396                     	;# 
  1952  039A                     	;# 
  1953  039C                     	;# 
  1954  039D                     	;# 
  1955  039E                     	;# 
  1956  039F                     	;# 
  1957  0415                     	;# 
  1958  0416                     	;# 
  1959  0417                     	;# 
  1960  041C                     	;# 
  1961  041D                     	;# 
  1962  041E                     	;# 
  1963  0FE4                     	;# 
  1964  0FE5                     	;# 
  1965  0FE6                     	;# 
  1966  0FE7                     	;# 
  1967  0FE8                     	;# 
  1968  0FE9                     	;# 
  1969  0FEA                     	;# 
  1970  0FEB                     	;# 
  1971  0FED                     	;# 
  1972  0FEE                     	;# 
  1973  0FEF                     	;# 
  1974  0000                     	;# 
  1975  0001                     	;# 
  1976  0002                     	;# 
  1977  0003                     	;# 
  1978  0004                     	;# 
  1979  0005                     	;# 
  1980  0006                     	;# 
  1981  0007                     	;# 
  1982  0008                     	;# 
  1983  0009                     	;# 
  1984  000A                     	;# 
  1985  000B                     	;# 
  1986  000C                     	;# 
  1987  000D                     	;# 
  1988  000E                     	;# 
  1989  0011                     	;# 
  1990  0012                     	;# 
  1991  0013                     	;# 
  1992  0014                     	;# 
  1993  0015                     	;# 
  1994  0016                     	;# 
  1995  0016                     	;# 
  1996  0017                     	;# 
  1997  0018                     	;# 
  1998  0019                     	;# 
  1999  001A                     	;# 
  2000  001B                     	;# 
  2001  001C                     	;# 
  2002  001E                     	;# 
  2003  001F                     	;# 
  2004  008C                     	;# 
  2005  008D                     	;# 
  2006  008E                     	;# 
  2007  0091                     	;# 
  2008  0092                     	;# 
  2009  0093                     	;# 
  2010  0094                     	;# 
  2011  0095                     	;# 
  2012  0096                     	;# 
  2013  0097                     	;# 
  2014  0098                     	;# 
  2015  0099                     	;# 
  2016  009A                     	;# 
  2017  009B                     	;# 
  2018  009B                     	;# 
  2019  009C                     	;# 
  2020  009D                     	;# 
  2021  009E                     	;# 
  2022  010C                     	;# 
  2023  010D                     	;# 
  2024  010E                     	;# 
  2025  0111                     	;# 
  2026  0112                     	;# 
  2027  0113                     	;# 
  2028  0114                     	;# 
  2029  0115                     	;# 
  2030  0116                     	;# 
  2031  0117                     	;# 
  2032  0118                     	;# 
  2033  0119                     	;# 
  2034  011A                     	;# 
  2035  011B                     	;# 
  2036  011D                     	;# 
  2037  011E                     	;# 
  2038  018C                     	;# 
  2039  018D                     	;# 
  2040  018E                     	;# 
  2041  0191                     	;# 
  2042  0191                     	;# 
  2043  0192                     	;# 
  2044  0193                     	;# 
  2045  0193                     	;# 
  2046  0193                     	;# 
  2047  0194                     	;# 
  2048  0195                     	;# 
  2049  0196                     	;# 
  2050  0199                     	;# 
  2051  019A                     	;# 
  2052  019B                     	;# 
  2053  019B                     	;# 
  2054  019B                     	;# 
  2055  019B                     	;# 
  2056  019C                     	;# 
  2057  019C                     	;# 
  2058  019D                     	;# 
  2059  019E                     	;# 
  2060  019F                     	;# 
  2061  020C                     	;# 
  2062  020D                     	;# 
  2063  020E                     	;# 
  2064  0211                     	;# 
  2065  0211                     	;# 
  2066  0212                     	;# 
  2067  0212                     	;# 
  2068  0213                     	;# 
  2069  0213                     	;# 
  2070  0214                     	;# 
  2071  0214                     	;# 
  2072  0215                     	;# 
  2073  0215                     	;# 
  2074  0215                     	;# 
  2075  0216                     	;# 
  2076  0216                     	;# 
  2077  0217                     	;# 
  2078  0217                     	;# 
  2079  0219                     	;# 
  2080  021A                     	;# 
  2081  021B                     	;# 
  2082  021C                     	;# 
  2083  021D                     	;# 
  2084  021E                     	;# 
  2085  021F                     	;# 
  2086  0291                     	;# 
  2087  0291                     	;# 
  2088  0292                     	;# 
  2089  0293                     	;# 
  2090  0294                     	;# 
  2091  0295                     	;# 
  2092  0295                     	;# 
  2093  0296                     	;# 
  2094  0298                     	;# 
  2095  0298                     	;# 
  2096  0299                     	;# 
  2097  029A                     	;# 
  2098  029B                     	;# 
  2099  029C                     	;# 
  2100  029D                     	;# 
  2101  029E                     	;# 
  2102  0311                     	;# 
  2103  0311                     	;# 
  2104  0312                     	;# 
  2105  0313                     	;# 
  2106  0318                     	;# 
  2107  0318                     	;# 
  2108  0319                     	;# 
  2109  031A                     	;# 
  2110  038C                     	;# 
  2111  038D                     	;# 
  2112  038E                     	;# 
  2113  0391                     	;# 
  2114  0392                     	;# 
  2115  0393                     	;# 
  2116  0394                     	;# 
  2117  0395                     	;# 
  2118  0396                     	;# 
  2119  039A                     	;# 
  2120  039C                     	;# 
  2121  039D                     	;# 
  2122  039E                     	;# 
  2123  039F                     	;# 
  2124  0415                     	;# 
  2125  0416                     	;# 
  2126  0417                     	;# 
  2127  041C                     	;# 
  2128  041D                     	;# 
  2129  041E                     	;# 
  2130  0FE4                     	;# 
  2131  0FE5                     	;# 
  2132  0FE6                     	;# 
  2133  0FE7                     	;# 
  2134  0FE8                     	;# 
  2135  0FE9                     	;# 
  2136  0FEA                     	;# 
  2137  0FEB                     	;# 
  2138  0FED                     	;# 
  2139  0FEE                     	;# 
  2140  0FEF                     	;# 
  2141  0000                     	;# 
  2142  0001                     	;# 
  2143  0002                     	;# 
  2144  0003                     	;# 
  2145  0004                     	;# 
  2146  0005                     	;# 
  2147  0006                     	;# 
  2148  0007                     	;# 
  2149  0008                     	;# 
  2150  0009                     	;# 
  2151  000A                     	;# 
  2152  000B                     	;# 
  2153  000C                     	;# 
  2154  000D                     	;# 
  2155  000E                     	;# 
  2156  0011                     	;# 
  2157  0012                     	;# 
  2158  0013                     	;# 
  2159  0014                     	;# 
  2160  0015                     	;# 
  2161  0016                     	;# 
  2162  0016                     	;# 
  2163  0017                     	;# 
  2164  0018                     	;# 
  2165  0019                     	;# 
  2166  001A                     	;# 
  2167  001B                     	;# 
  2168  001C                     	;# 
  2169  001E                     	;# 
  2170  001F                     	;# 
  2171  008C                     	;# 
  2172  008D                     	;# 
  2173  008E                     	;# 
  2174  0091                     	;# 
  2175  0092                     	;# 
  2176  0093                     	;# 
  2177  0094                     	;# 
  2178  0095                     	;# 
  2179  0096                     	;# 
  2180  0097                     	;# 
  2181  0098                     	;# 
  2182  0099                     	;# 
  2183  009A                     	;# 
  2184  009B                     	;# 
  2185  009B                     	;# 
  2186  009C                     	;# 
  2187  009D                     	;# 
  2188  009E                     	;# 
  2189  010C                     	;# 
  2190  010D                     	;# 
  2191  010E                     	;# 
  2192  0111                     	;# 
  2193  0112                     	;# 
  2194  0113                     	;# 
  2195  0114                     	;# 
  2196  0115                     	;# 
  2197  0116                     	;# 
  2198  0117                     	;# 
  2199  0118                     	;# 
  2200  0119                     	;# 
  2201  011A                     	;# 
  2202  011B                     	;# 
  2203  011D                     	;# 
  2204  011E                     	;# 
  2205  018C                     	;# 
  2206  018D                     	;# 
  2207  018E                     	;# 
  2208  0191                     	;# 
  2209  0191                     	;# 
  2210  0192                     	;# 
  2211  0193                     	;# 
  2212  0193                     	;# 
  2213  0193                     	;# 
  2214  0194                     	;# 
  2215  0195                     	;# 
  2216  0196                     	;# 
  2217  0199                     	;# 
  2218  019A                     	;# 
  2219  019B                     	;# 
  2220  019B                     	;# 
  2221  019B                     	;# 
  2222  019B                     	;# 
  2223  019C                     	;# 
  2224  019C                     	;# 
  2225  019D                     	;# 
  2226  019E                     	;# 
  2227  019F                     	;# 
  2228  020C                     	;# 
  2229  020D                     	;# 
  2230  020E                     	;# 
  2231  0211                     	;# 
  2232  0211                     	;# 
  2233  0212                     	;# 
  2234  0212                     	;# 
  2235  0213                     	;# 
  2236  0213                     	;# 
  2237  0214                     	;# 
  2238  0214                     	;# 
  2239  0215                     	;# 
  2240  0215                     	;# 
  2241  0215                     	;# 
  2242  0216                     	;# 
  2243  0216                     	;# 
  2244  0217                     	;# 
  2245  0217                     	;# 
  2246  0219                     	;# 
  2247  021A                     	;# 
  2248  021B                     	;# 
  2249  021C                     	;# 
  2250  021D                     	;# 
  2251  021E                     	;# 
  2252  021F                     	;# 
  2253  0291                     	;# 
  2254  0291                     	;# 
  2255  0292                     	;# 
  2256  0293                     	;# 
  2257  0294                     	;# 
  2258  0295                     	;# 
  2259  0295                     	;# 
  2260  0296                     	;# 
  2261  0298                     	;# 
  2262  0298                     	;# 
  2263  0299                     	;# 
  2264  029A                     	;# 
  2265  029B                     	;# 
  2266  029C                     	;# 
  2267  029D                     	;# 
  2268  029E                     	;# 
  2269  0311                     	;# 
  2270  0311                     	;# 
  2271  0312                     	;# 
  2272  0313                     	;# 
  2273  0318                     	;# 
  2274  0318                     	;# 
  2275  0319                     	;# 
  2276  031A                     	;# 
  2277  038C                     	;# 
  2278  038D                     	;# 
  2279  038E                     	;# 
  2280  0391                     	;# 
  2281  0392                     	;# 
  2282  0393                     	;# 
  2283  0394                     	;# 
  2284  0395                     	;# 
  2285  0396                     	;# 
  2286  039A                     	;# 
  2287  039C                     	;# 
  2288  039D                     	;# 
  2289  039E                     	;# 
  2290  039F                     	;# 
  2291  0415                     	;# 
  2292  0416                     	;# 
  2293  0417                     	;# 
  2294  041C                     	;# 
  2295  041D                     	;# 
  2296  041E                     	;# 
  2297  0FE4                     	;# 
  2298  0FE5                     	;# 
  2299  0FE6                     	;# 
  2300  0FE7                     	;# 
  2301  0FE8                     	;# 
  2302  0FE9                     	;# 
  2303  0FEA                     	;# 
  2304  0FEB                     	;# 
  2305  0FED                     	;# 
  2306  0FEE                     	;# 
  2307  0FEF                     	;# 
  2308  0000                     	;# 
  2309  0001                     	;# 
  2310  0002                     	;# 
  2311  0003                     	;# 
  2312  0004                     	;# 
  2313  0005                     	;# 
  2314  0006                     	;# 
  2315  0007                     	;# 
  2316  0008                     	;# 
  2317  0009                     	;# 
  2318  000A                     	;# 
  2319  000B                     	;# 
  2320  000C                     	;# 
  2321  000D                     	;# 
  2322  000E                     	;# 
  2323  0011                     	;# 
  2324  0012                     	;# 
  2325  0013                     	;# 
  2326  0014                     	;# 
  2327  0015                     	;# 
  2328  0016                     	;# 
  2329  0016                     	;# 
  2330  0017                     	;# 
  2331  0018                     	;# 
  2332  0019                     	;# 
  2333  001A                     	;# 
  2334  001B                     	;# 
  2335  001C                     	;# 
  2336  001E                     	;# 
  2337  001F                     	;# 
  2338  008C                     	;# 
  2339  008D                     	;# 
  2340  008E                     	;# 
  2341  0091                     	;# 
  2342  0092                     	;# 
  2343  0093                     	;# 
  2344  0094                     	;# 
  2345  0095                     	;# 
  2346  0096                     	;# 
  2347  0097                     	;# 
  2348  0098                     	;# 
  2349  0099                     	;# 
  2350  009A                     	;# 
  2351  009B                     	;# 
  2352  009B                     	;# 
  2353  009C                     	;# 
  2354  009D                     	;# 
  2355  009E                     	;# 
  2356  010C                     	;# 
  2357  010D                     	;# 
  2358  010E                     	;# 
  2359  0111                     	;# 
  2360  0112                     	;# 
  2361  0113                     	;# 
  2362  0114                     	;# 
  2363  0115                     	;# 
  2364  0116                     	;# 
  2365  0117                     	;# 
  2366  0118                     	;# 
  2367  0119                     	;# 
  2368  011A                     	;# 
  2369  011B                     	;# 
  2370  011D                     	;# 
  2371  011E                     	;# 
  2372  018C                     	;# 
  2373  018D                     	;# 
  2374  018E                     	;# 
  2375  0191                     	;# 
  2376  0191                     	;# 
  2377  0192                     	;# 
  2378  0193                     	;# 
  2379  0193                     	;# 
  2380  0193                     	;# 
  2381  0194                     	;# 
  2382  0195                     	;# 
  2383  0196                     	;# 
  2384  0199                     	;# 
  2385  019A                     	;# 
  2386  019B                     	;# 
  2387  019B                     	;# 
  2388  019B                     	;# 
  2389  019B                     	;# 
  2390  019C                     	;# 
  2391  019C                     	;# 
  2392  019D                     	;# 
  2393  019E                     	;# 
  2394  019F                     	;# 
  2395  020C                     	;# 
  2396  020D                     	;# 
  2397  020E                     	;# 
  2398  0211                     	;# 
  2399  0211                     	;# 
  2400  0212                     	;# 
  2401  0212                     	;# 
  2402  0213                     	;# 
  2403  0213                     	;# 
  2404  0214                     	;# 
  2405  0214                     	;# 
  2406  0215                     	;# 
  2407  0215                     	;# 
  2408  0215                     	;# 
  2409  0216                     	;# 
  2410  0216                     	;# 
  2411  0217                     	;# 
  2412  0217                     	;# 
  2413  0219                     	;# 
  2414  021A                     	;# 
  2415  021B                     	;# 
  2416  021C                     	;# 
  2417  021D                     	;# 
  2418  021E                     	;# 
  2419  021F                     	;# 
  2420  0291                     	;# 
  2421  0291                     	;# 
  2422  0292                     	;# 
  2423  0293                     	;# 
  2424  0294                     	;# 
  2425  0295                     	;# 
  2426  0295                     	;# 
  2427  0296                     	;# 
  2428  0298                     	;# 
  2429  0298                     	;# 
  2430  0299                     	;# 
  2431  029A                     	;# 
  2432  029B                     	;# 
  2433  029C                     	;# 
  2434  029D                     	;# 
  2435  029E                     	;# 
  2436  0311                     	;# 
  2437  0311                     	;# 
  2438  0312                     	;# 
  2439  0313                     	;# 
  2440  0318                     	;# 
  2441  0318                     	;# 
  2442  0319                     	;# 
  2443  031A                     	;# 
  2444  038C                     	;# 
  2445  038D                     	;# 
  2446  038E                     	;# 
  2447  0391                     	;# 
  2448  0392                     	;# 
  2449  0393                     	;# 
  2450  0394                     	;# 
  2451  0395                     	;# 
  2452  0396                     	;# 
  2453  039A                     	;# 
  2454  039C                     	;# 
  2455  039D                     	;# 
  2456  039E                     	;# 
  2457  039F                     	;# 
  2458  0415                     	;# 
  2459  0416                     	;# 
  2460  0417                     	;# 
  2461  041C                     	;# 
  2462  041D                     	;# 
  2463  041E                     	;# 
  2464  0FE4                     	;# 
  2465  0FE5                     	;# 
  2466  0FE6                     	;# 
  2467  0FE7                     	;# 
  2468  0FE8                     	;# 
  2469  0FE9                     	;# 
  2470  0FEA                     	;# 
  2471  0FEB                     	;# 
  2472  0FED                     	;# 
  2473  0FEE                     	;# 
  2474  0FEF                     	;# 
  2475                           
  2476                           	psect	stringtext1
  2477  045F                     __pstringtext1:
  2478  045F                     _i2c1_fsmStateTable:
  2479  045F  3465               	retlw	low _I2C1_DO_IDLE
  2480  0460  3407               	retlw	high _I2C1_DO_IDLE
  2481  0461  34E5               	retlw	low _I2C1_DO_SEND_ADR_READ
  2482  0462  3406               	retlw	high _I2C1_DO_SEND_ADR_READ
  2483  0463  34FF               	retlw	low _I2C1_DO_SEND_ADR_WRITE
  2484  0464  3406               	retlw	high _I2C1_DO_SEND_ADR_WRITE
  2485  0465  343E               	retlw	low _I2C1_DO_TX
  2486  0466  3402               	retlw	high _I2C1_DO_TX
  2487  0467  3494               	retlw	low _I2C1_DO_RX
  2488  0468  3402               	retlw	high _I2C1_DO_RX
  2489  0469  3407               	retlw	low _I2C1_DO_RCEN
  2490  046A  3407               	retlw	high _I2C1_DO_RCEN
  2491  046B  3483               	retlw	low _I2C1_DO_TX_EMPTY
  2492  046C  3403               	retlw	high _I2C1_DO_TX_EMPTY
  2493  046D  3460               	retlw	low _I2C1_DO_SEND_RESTART_READ
  2494  046E  3407               	retlw	high _I2C1_DO_SEND_RESTART_READ
  2495  046F  345B               	retlw	low _I2C1_DO_SEND_RESTART_WRITE
  2496  0470  3407               	retlw	high _I2C1_DO_SEND_RESTART_WRITE
  2497  0471  3456               	retlw	low _I2C1_DO_SEND_RESTART
  2498  0472  3407               	retlw	high _I2C1_DO_SEND_RESTART
  2499  0473  3451               	retlw	low _I2C1_DO_SEND_STOP
  2500  0474  3407               	retlw	high _I2C1_DO_SEND_STOP
  2501  0475  344C               	retlw	low _I2C1_DO_RX_ACK
  2502  0476  3407               	retlw	high _I2C1_DO_RX_ACK
  2503  0477  3447               	retlw	low _I2C1_DO_RX_NACK_STOP
  2504  0478  3407               	retlw	high _I2C1_DO_RX_NACK_STOP
  2505  0479  3442               	retlw	low _I2C1_DO_RX_NACK_RESTART
  2506  047A  3407               	retlw	high _I2C1_DO_RX_NACK_RESTART
  2507  047B  343D               	retlw	low _I2C1_DO_RESET
  2508  047C  3407               	retlw	high _I2C1_DO_RESET
  2509  047D  34E0               	retlw	low _I2C1_DO_ADDRESS_NACK
  2510  047E  3403               	retlw	high _I2C1_DO_ADDRESS_NACK
  2511  047F                     __end_of_i2c1_fsmStateTable:
  2512                           
  2513                           	psect	nvCOMMON
  2514  0077                     __pnvCOMMON:
  2515  0077                     _IOCBF7_InterruptHandler:
  2516  0077                     	ds	2
  2517  0012                     _PIR2bits	set	18
  2518  001C                     _T2CONbits	set	28
  2519  001C                     _T2CON	set	28
  2520  0011                     _PIR1bits	set	17
  2521  001A                     _TMR2	set	26
  2522  001B                     _PR2	set	27
  2523  0013                     _PIR3bits	set	19
  2524  000B                     _INTCONbits	set	11
  2525  0091                     _PIE1bits	set	145
  2526  008E                     _TRISC	set	142
  2527  008D                     _TRISB	set	141
  2528  008C                     _TRISA	set	140
  2529  0097                     _WDTCON	set	151
  2530  0098                     _OSCTUNE	set	152
  2531  0099                     _OSCCON	set	153
  2532  0095                     _OPTION_REGbits	set	149
  2533  0093                     _PIE3bits	set	147
  2534  04D6                     _PLLR	set	1238
  2535  011E                     _APFCON1	set	286
  2536  011D                     _APFCON0	set	285
  2537  010E                     _LATC	set	270
  2538  010D                     _LATB	set	269
  2539  010C                     _LATA	set	268
  2540  0116                     _BORCON	set	278
  2541  018C                     _ANSELA	set	396
  2542  018D                     _ANSELB	set	397
  2543  018E                     _ANSELC	set	398
  2544  0196                     _EECON2	set	406
  2545  0193                     _EEDATL	set	403
  2546  0194                     _EEDATH	set	404
  2547  0195                     _EECON1bits	set	405
  2548  0192                     _EEADRH	set	402
  2549  0191                     _EEADRL	set	401
  2550  0214                     _SSP1STATbits	set	532
  2551  0216                     _SSP1CON2bits	set	534
  2552  0211                     _SSP1BUF	set	529
  2553  0215                     _SSP1CON1bits	set	533
  2554  0212                     _SSP1ADD	set	530
  2555  0216                     _SSP1CON2	set	534
  2556  0215                     _SSP1CON1	set	533
  2557  0214                     _SSP1STAT	set	532
  2558  020E                     _WPUC	set	526
  2559  020C                     _WPUA	set	524
  2560  020D                     _WPUB	set	525
  2561  0291                     _CCPR1L	set	657
  2562  0292                     _CCPR1H	set	658
  2563  0296                     _PSTR1CON	set	662
  2564  0294                     _PWM1CON	set	660
  2565  0295                     _ECCP1AS	set	661
  2566  0293                     _CCP1CON	set	659
  2567  029E                     _CCPTMRSbits	set	670
  2568  0298                     _CCPR2L	set	664
  2569  0299                     _CCPR2H	set	665
  2570  029D                     _PSTR2CON	set	669
  2571  029B                     _PWM2CON	set	667
  2572  029C                     _CCP2AS	set	668
  2573  029A                     _CCP2CON	set	666
  2574  0319                     _CCPR4H	set	793
  2575  0318                     _CCPR4L	set	792
  2576  031A                     _CCP4CON	set	794
  2577  0394                     _IOCBPbits	set	916
  2578  0395                     _IOCBNbits	set	917
  2579  0396                     _IOCBFbits	set	918
  2580  0417                     _T4CONbits	set	1047
  2581  0417                     _T4CON	set	1047
  2582  0415                     _TMR4	set	1045
  2583  0416                     _PR4	set	1046
  2584                           
  2585                           	psect	cinit
  2586  0034                     start_initialization:	
  2587                           ; #config settings
  2588                           
  2589  0034                     __initialization:
  2590                           
  2591                           ; Clear objects allocated to COMMON
  2592  0034  01F9               	clrf	__pbssCOMMON& (0+127)
  2593  0035  01FA               	clrf	(__pbssCOMMON+1)& (0+127)
  2594                           
  2595                           ; Clear objects allocated to BANK0
  2596  0036  3020               	movlw	low __pbssBANK0
  2597  0037  0084               	movwf	4
  2598  0038  3000               	movlw	high __pbssBANK0
  2599  0039  0085               	movwf	5
  2600  003A  3021               	movlw	33
  2601  003B  3187  270E  3180   	fcall	clear_ram0
  2602  003E                     end_of_initialization:	
  2603                           ;End of C runtime variable initialization code
  2604                           
  2605  003E                     __end_of__initialization:
  2606  003E  107E               	bcf	int$flags,0	;clear compiler interrupt flag (level 1)
  2607  003F  0020               	movlb	0
  2608  0040  3180  2842         	ljmp	_main	;jump to C main() function
  2609                           
  2610                           	psect	bssCOMMON
  2611  0079                     __pbssCOMMON:
  2612  0079                     TMR4_ISR@CountCallBack:
  2613  0079                     	ds	2
  2614                           
  2615                           	psect	bssBANK0
  2616  0020                     __pbssBANK0:
  2617  0020                     _I2C1_Status:
  2618  0020                     	ds	29
  2619  003D                     _TMR4_InterruptHandler:
  2620  003D                     	ds	2
  2621  003F                     _INT_InterruptHandler:
  2622  003F                     	ds	2
  2623                           
  2624                           	psect	clrtext
  2625  070E                     clear_ram0:	
  2626                           ;	Called with FSR0 containing the base address, and
  2627                           ;	WREG with the size to clear
  2628                           
  2629  070E  0064               	clrwdt	;clear the watchdog before getting into this loop
  2630  070F                     clrloop0:
  2631  070F  0180               	clrf	0	;clear RAM location pointed to by FSR
  2632  0710  3101               	addfsr 0,1
  2633  0711  0B89               	decfsz	9,f	;Have we reached the end of clearing yet?
  2634  0712  2F0F               	goto	clrloop0	;have we reached the end yet?
  2635  0713  3400               	retlw	0	;all done for this memory range, return
  2636                           
  2637                           	psect	cstackCOMMON
  2638  0070                     __pcstackCOMMON:
  2639  0070                     ?_I2C1_Open:
  2640  0070                     ?_I2C1_MasterWrite:	
  2641                           ; 1 bytes @ 0x0
  2642                           
  2643  0070                     ?_I2C1_Close:	
  2644                           ; 1 bytes @ 0x0
  2645                           
  2646  0070                     ?_INT_ISR:	
  2647                           ; 1 bytes @ 0x0
  2648                           
  2649  0070                     ??_INT_ISR:	
  2650                           ; 1 bytes @ 0x0
  2651                           
  2652  0070                     ?_PIN_MANAGER_IOC:	
  2653                           ; 1 bytes @ 0x0
  2654                           
  2655  0070                     ?_TMR4_ISR:	
  2656                           ; 1 bytes @ 0x0
  2657                           
  2658  0070                     ??_TMR4_ISR:	
  2659                           ; 1 bytes @ 0x0
  2660                           
  2661  0070                     ?_INT_CallBack:	
  2662                           ; 1 bytes @ 0x0
  2663                           
  2664  0070                     ??_INT_CallBack:	
  2665                           ; 1 bytes @ 0x0
  2666                           
  2667  0070                     ?_I2C1_Initialize:	
  2668                           ; 1 bytes @ 0x0
  2669                           
  2670  0070                     ?_PIN_MANAGER_Initialize:	
  2671                           ; 1 bytes @ 0x0
  2672                           
  2673  0070                     ?_OSCILLATOR_Initialize:	
  2674                           ; 1 bytes @ 0x0
  2675                           
  2676  0070                     ?_WDT_Initialize:	
  2677                           ; 1 bytes @ 0x0
  2678                           
  2679  0070                     ?_TMR4_Initialize:	
  2680                           ; 1 bytes @ 0x0
  2681                           
  2682  0070                     ?_PWM4_Initialize:	
  2683                           ; 1 bytes @ 0x0
  2684                           
  2685  0070                     ?_TMR2_Initialize:	
  2686                           ; 1 bytes @ 0x0
  2687                           
  2688  0070                     ?_IOCBF7_DefaultInterruptHandler:	
  2689                           ; 1 bytes @ 0x0
  2690                           
  2691  0070                     ??_IOCBF7_DefaultInterruptHandler:	
  2692                           ; 1 bytes @ 0x0
  2693                           
  2694  0070                     ?_IOCBF7_ISR:	
  2695                           ; 1 bytes @ 0x0
  2696                           
  2697  0070                     ?_I2C1_DO_IDLE:	
  2698                           ; 1 bytes @ 0x0
  2699                           
  2700  0070                     ?_I2C1_DO_SEND_ADR_READ:	
  2701                           ; 1 bytes @ 0x0
  2702                           
  2703  0070                     ?_I2C1_DO_SEND_ADR_WRITE:	
  2704                           ; 1 bytes @ 0x0
  2705                           
  2706  0070                     ?_I2C1_DO_TX:	
  2707                           ; 1 bytes @ 0x0
  2708                           
  2709  0070                     ?_I2C1_DO_RX:	
  2710                           ; 1 bytes @ 0x0
  2711                           
  2712  0070                     ?_I2C1_DO_RCEN:	
  2713                           ; 1 bytes @ 0x0
  2714                           
  2715  0070                     ?_I2C1_DO_TX_EMPTY:	
  2716                           ; 1 bytes @ 0x0
  2717                           
  2718  0070                     ?_I2C1_DO_SEND_RESTART_READ:	
  2719                           ; 1 bytes @ 0x0
  2720                           
  2721  0070                     ?_I2C1_DO_SEND_RESTART_WRITE:	
  2722                           ; 1 bytes @ 0x0
  2723                           
  2724  0070                     ?_I2C1_DO_SEND_RESTART:	
  2725                           ; 1 bytes @ 0x0
  2726                           
  2727  0070                     ?_I2C1_DO_SEND_STOP:	
  2728                           ; 1 bytes @ 0x0
  2729                           
  2730  0070                     ?_I2C1_DO_RX_ACK:	
  2731                           ; 1 bytes @ 0x0
  2732                           
  2733  0070                     ?_I2C1_DO_RX_NACK_STOP:	
  2734                           ; 1 bytes @ 0x0
  2735                           
  2736  0070                     ?_I2C1_DO_RX_NACK_RESTART:	
  2737                           ; 1 bytes @ 0x0
  2738                           
  2739  0070                     ?_I2C1_DO_RESET:	
  2740                           ; 1 bytes @ 0x0
  2741                           
  2742  0070                     ?_I2C1_DO_ADDRESS_NACK:	
  2743                           ; 1 bytes @ 0x0
  2744                           
  2745  0070                     ?_I2C1_MasterClearIrq:	
  2746                           ; 1 bytes @ 0x0
  2747                           
  2748  0070                     ?_I2C1_MasterOpen:	
  2749                           ; 1 bytes @ 0x0
  2750                           
  2751  0070                     ?_I2C1_MasterDisableIrq:	
  2752                           ; 1 bytes @ 0x0
  2753                           
  2754  0070                     ?_I2C1_MasterClose:	
  2755                           ; 1 bytes @ 0x0
  2756                           
  2757  0070                     ?_I2C1_MasterStart:	
  2758                           ; 1 bytes @ 0x0
  2759                           
  2760  0070                     ?_I2C1_Poller:	
  2761                           ; 1 bytes @ 0x0
  2762                           
  2763  0070                     ?_I2C1_MasterWaitForEvent:	
  2764                           ; 1 bytes @ 0x0
  2765                           
  2766  0070                     ?_I2C1_MasterFsm:	
  2767                           ; 1 bytes @ 0x0
  2768                           
  2769  0070                     ?_I2C1_MasterIsNack:	
  2770                           ; 1 bytes @ 0x0
  2771                           
  2772  0070                     ?_I2C1_MasterSendTxData:	
  2773                           ; 1 bytes @ 0x0
  2774                           
  2775  0070                     ?_I2C1_MasterGetRxData:	
  2776                           ; 1 bytes @ 0x0
  2777                           
  2778  0070                     ?_I2C1_MasterSendAck:	
  2779                           ; 1 bytes @ 0x0
  2780                           
  2781  0070                     ?_I2C1_MasterStartRx:	
  2782                           ; 1 bytes @ 0x0
  2783                           
  2784  0070                     ?_I2C1_MasterSetIrq:	
  2785                           ; 1 bytes @ 0x0
  2786                           
  2787  0070                     ?_I2C1_MasterEnableRestart:	
  2788                           ; 1 bytes @ 0x0
  2789                           
  2790  0070                     ?_I2C1_MasterStop:	
  2791                           ; 1 bytes @ 0x0
  2792                           
  2793  0070                     ?_I2C1_MasterSendNack:	
  2794                           ; 1 bytes @ 0x0
  2795                           
  2796  0070                     ?_WakeUpInterrupt:	
  2797                           ; 1 bytes @ 0x0
  2798                           
  2799  0070                     ??_WakeUpInterrupt:	
  2800                           ; 1 bytes @ 0x0
  2801                           
  2802  0070                     ?_ButtonInterrupt:	
  2803                           ; 1 bytes @ 0x0
  2804                           
  2805  0070                     ?_TimerInterrupt:	
  2806                           ; 1 bytes @ 0x0
  2807                           
  2808  0070                     ??_TimerInterrupt:	
  2809                           ; 1 bytes @ 0x0
  2810                           
  2811  0070                     ?_TMR4_StopTimer:	
  2812                           ; 1 bytes @ 0x0
  2813                           
  2814  0070                     ??_TMR4_StopTimer:	
  2815                           ; 1 bytes @ 0x0
  2816                           
  2817  0070                     ?_TMR4_DefaultInterruptHandler:	
  2818                           ; 1 bytes @ 0x0
  2819                           
  2820  0070                     ??_TMR4_DefaultInterruptHandler:	
  2821                           ; 1 bytes @ 0x0
  2822                           
  2823  0070                     ?_TMR4_CallBack:	
  2824                           ; 1 bytes @ 0x0
  2825                           
  2826  0070                     ??_TMR4_CallBack:	
  2827                           ; 1 bytes @ 0x0
  2828                           
  2829  0070                     ?_EPWM2_Initialize:	
  2830                           ; 1 bytes @ 0x0
  2831                           
  2832  0070                     ?_EPWM1_Initialize:	
  2833                           ; 1 bytes @ 0x0
  2834                           
  2835  0070                     ?_INTERRUPT_InterruptManager:	
  2836                           ; 1 bytes @ 0x0
  2837                           
  2838  0070                     ?_INT_DefaultInterruptHandler:	
  2839                           ; 1 bytes @ 0x0
  2840                           
  2841  0070                     ??_INT_DefaultInterruptHandler:	
  2842                           ; 1 bytes @ 0x0
  2843                           
  2844  0070                     ?_EXT_INT_Initialize:	
  2845                           ; 1 bytes @ 0x0
  2846                           
  2847  0070                     ?_SYSTEM_Initialize:	
  2848                           ; 1 bytes @ 0x0
  2849                           
  2850  0070                     ?_I2C1_MasterOperation:	
  2851                           ; 1 bytes @ 0x0
  2852                           
  2853  0070                     ?_patronus:	
  2854                           ; 1 bytes @ 0x0
  2855                           
  2856  0070                     ?_main:	
  2857                           ; 1 bytes @ 0x0
  2858                           
  2859  0070                     ?i1_DELAY_milliseconds:	
  2860                           ; 1 bytes @ 0x0
  2861                           
  2862  0070                     ?i1_EPWM2_LoadDutyValue:	
  2863                           ; 1 bytes @ 0x0
  2864                           
  2865  0070                     ?i1_EPWM1_LoadDutyValue:	
  2866                           ; 1 bytes @ 0x0
  2867                           
  2868  0070                     ?i1_PWM4_LoadDutyValue:	
  2869                           ; 1 bytes @ 0x0
  2870                           
  2871  0070                     i1DELAY_milliseconds@milliseconds:	
  2872                           ; 1 bytes @ 0x0
  2873                           
  2874  0070                     i1EPWM2_LoadDutyValue@dutyValue:	
  2875                           ; 2 bytes @ 0x0
  2876                           
  2877  0070                     i1EPWM1_LoadDutyValue@dutyValue:	
  2878                           ; 2 bytes @ 0x0
  2879                           
  2880  0070                     i1PWM4_LoadDutyValue@dutyValue:	
  2881                           ; 2 bytes @ 0x0
  2882                           
  2883                           
  2884                           ; 2 bytes @ 0x0
  2885  0070                     	ds	2
  2886  0072                     ??i1_DELAY_milliseconds:
  2887  0072                     ??i1_EPWM2_LoadDutyValue:	
  2888                           ; 1 bytes @ 0x2
  2889                           
  2890  0072                     ??i1_EPWM1_LoadDutyValue:	
  2891                           ; 1 bytes @ 0x2
  2892                           
  2893  0072                     ??i1_PWM4_LoadDutyValue:	
  2894                           ; 1 bytes @ 0x2
  2895                           
  2896                           
  2897                           ; 1 bytes @ 0x2
  2898  0072                     	ds	2
  2899  0074                     ??_patronus:
  2900                           
  2901                           ; 1 bytes @ 0x4
  2902  0074                     	ds	2
  2903  0076                     patronus@i:
  2904                           
  2905                           ; 1 bytes @ 0x6
  2906  0076                     	ds	1
  2907  0077                     ??_PIN_MANAGER_IOC:
  2908  0077                     ??_IOCBF7_ISR:	
  2909                           ; 1 bytes @ 0x7
  2910                           
  2911  0077                     ??_ButtonInterrupt:	
  2912                           ; 1 bytes @ 0x7
  2913                           
  2914  0077                     ??_INTERRUPT_InterruptManager:	
  2915                           ; 1 bytes @ 0x7
  2916                           
  2917                           
  2918                           	psect	cstackBANK0
  2919  0041                     __pcstackBANK0:	
  2920                           ; 1 bytes @ 0x7
  2921                           
  2922  0041                     ?_DELAY_milliseconds:
  2923  0041                     ??_I2C1_Open:	
  2924                           ; 1 bytes @ 0x0
  2925                           
  2926  0041                     ?_I2C1_SetBuffer:	
  2927                           ; 1 bytes @ 0x0
  2928                           
  2929  0041                     ??_I2C1_Close:	
  2930                           ; 1 bytes @ 0x0
  2931                           
  2932  0041                     ??_I2C1_Initialize:	
  2933                           ; 1 bytes @ 0x0
  2934                           
  2935  0041                     ??_OSCILLATOR_Initialize:	
  2936                           ; 1 bytes @ 0x0
  2937                           
  2938  0041                     ??_WDT_Initialize:	
  2939                           ; 1 bytes @ 0x0
  2940                           
  2941  0041                     ??_PWM4_Initialize:	
  2942                           ; 1 bytes @ 0x0
  2943                           
  2944  0041                     ??_TMR2_Initialize:	
  2945                           ; 1 bytes @ 0x0
  2946                           
  2947  0041                     ?_IOCBF7_SetInterruptHandler:	
  2948                           ; 1 bytes @ 0x0
  2949                           
  2950  0041                     ??_I2C1_DO_IDLE:	
  2951                           ; 1 bytes @ 0x0
  2952                           
  2953  0041                     ??_I2C1_DO_SEND_ADR_READ:	
  2954                           ; 1 bytes @ 0x0
  2955                           
  2956  0041                     ??_I2C1_DO_RCEN:	
  2957                           ; 1 bytes @ 0x0
  2958                           
  2959  0041                     ??_I2C1_DO_SEND_RESTART_READ:	
  2960                           ; 1 bytes @ 0x0
  2961                           
  2962  0041                     ??_I2C1_DO_SEND_RESTART_WRITE:	
  2963                           ; 1 bytes @ 0x0
  2964                           
  2965  0041                     ??_I2C1_DO_SEND_RESTART:	
  2966                           ; 1 bytes @ 0x0
  2967                           
  2968  0041                     ??_I2C1_DO_SEND_STOP:	
  2969                           ; 1 bytes @ 0x0
  2970                           
  2971  0041                     ??_I2C1_DO_RX_ACK:	
  2972                           ; 1 bytes @ 0x0
  2973                           
  2974  0041                     ??_I2C1_DO_RX_NACK_STOP:	
  2975                           ; 1 bytes @ 0x0
  2976                           
  2977  0041                     ??_I2C1_DO_RX_NACK_RESTART:	
  2978                           ; 1 bytes @ 0x0
  2979                           
  2980  0041                     ??_I2C1_DO_RESET:	
  2981                           ; 1 bytes @ 0x0
  2982                           
  2983  0041                     ??_I2C1_MasterClearIrq:	
  2984                           ; 1 bytes @ 0x0
  2985                           
  2986  0041                     ??_I2C1_MasterOpen:	
  2987                           ; 1 bytes @ 0x0
  2988                           
  2989  0041                     ??_I2C1_MasterDisableIrq:	
  2990                           ; 1 bytes @ 0x0
  2991                           
  2992  0041                     ??_I2C1_MasterClose:	
  2993                           ; 1 bytes @ 0x0
  2994                           
  2995  0041                     ??_I2C1_MasterStart:	
  2996                           ; 1 bytes @ 0x0
  2997                           
  2998  0041                     ?_I2C1_SetCallback:	
  2999                           ; 1 bytes @ 0x0
  3000                           
  3001  0041                     ??_I2C1_MasterWaitForEvent:	
  3002                           ; 1 bytes @ 0x0
  3003                           
  3004  0041                     ??_I2C1_MasterIsNack:	
  3005                           ; 1 bytes @ 0x0
  3006                           
  3007  0041                     ??_I2C1_MasterSendTxData:	
  3008                           ; 1 bytes @ 0x0
  3009                           
  3010  0041                     ??_I2C1_MasterGetRxData:	
  3011                           ; 1 bytes @ 0x0
  3012                           
  3013  0041                     ??_I2C1_MasterSendAck:	
  3014                           ; 1 bytes @ 0x0
  3015                           
  3016  0041                     ??_I2C1_MasterStartRx:	
  3017                           ; 1 bytes @ 0x0
  3018                           
  3019  0041                     ??_I2C1_MasterSetIrq:	
  3020                           ; 1 bytes @ 0x0
  3021                           
  3022  0041                     ??_I2C1_MasterEnableRestart:	
  3023                           ; 1 bytes @ 0x0
  3024                           
  3025  0041                     ??_I2C1_MasterStop:	
  3026                           ; 1 bytes @ 0x0
  3027                           
  3028  0041                     ??_I2C1_MasterSendNack:	
  3029                           ; 1 bytes @ 0x0
  3030                           
  3031  0041                     ?_TMR4_SetInterruptHandler:	
  3032                           ; 1 bytes @ 0x0
  3033                           
  3034  0041                     ??_EPWM2_Initialize:	
  3035                           ; 1 bytes @ 0x0
  3036                           
  3037  0041                     ?_EPWM2_LoadDutyValue:	
  3038                           ; 1 bytes @ 0x0
  3039                           
  3040  0041                     ??_EPWM1_Initialize:	
  3041                           ; 1 bytes @ 0x0
  3042                           
  3043  0041                     ?_EPWM1_LoadDutyValue:	
  3044                           ; 1 bytes @ 0x0
  3045                           
  3046  0041                     ?_INT_SetInterruptHandler:	
  3047                           ; 1 bytes @ 0x0
  3048                           
  3049  0041                     ?_PWM4_LoadDutyValue:	
  3050                           ; 1 bytes @ 0x0
  3051                           
  3052  0041                     I2C1_MasterSendTxData@data:	
  3053                           ; 1 bytes @ 0x0
  3054                           
  3055  0041                     DELAY_milliseconds@milliseconds:	
  3056                           ; 1 bytes @ 0x0
  3057                           
  3058  0041                     EPWM2_LoadDutyValue@dutyValue:	
  3059                           ; 2 bytes @ 0x0
  3060                           
  3061  0041                     EPWM1_LoadDutyValue@dutyValue:	
  3062                           ; 2 bytes @ 0x0
  3063                           
  3064  0041                     INT_SetInterruptHandler@InterruptHandler:	
  3065                           ; 2 bytes @ 0x0
  3066                           
  3067  0041                     PWM4_LoadDutyValue@dutyValue:	
  3068                           ; 2 bytes @ 0x0
  3069                           
  3070  0041                     IOCBF7_SetInterruptHandler@InterruptHandler:	
  3071                           ; 2 bytes @ 0x0
  3072                           
  3073  0041                     I2C1_SetBuffer@bufferSize:	
  3074                           ; 2 bytes @ 0x0
  3075                           
  3076  0041                     I2C1_SetCallback@cb:	
  3077                           ; 2 bytes @ 0x0
  3078                           
  3079  0041                     TMR4_SetInterruptHandler@InterruptHandler:	
  3080                           ; 2 bytes @ 0x0
  3081                           
  3082                           
  3083                           ; 2 bytes @ 0x0
  3084  0041                     	ds	1
  3085  0042                     ??_I2C1_DO_SEND_ADR_WRITE:
  3086  0042                     I2C1_Open@address:	
  3087                           ; 1 bytes @ 0x1
  3088                           
  3089  0042                     I2C1_Close@returnValue:	
  3090                           ; 1 bytes @ 0x1
  3091                           
  3092                           
  3093                           ; 1 bytes @ 0x1
  3094  0042                     	ds	1
  3095  0043                     ??_DELAY_milliseconds:
  3096  0043                     ??_I2C1_SetBuffer:	
  3097                           ; 1 bytes @ 0x2
  3098                           
  3099  0043                     ??_PIN_MANAGER_Initialize:	
  3100                           ; 1 bytes @ 0x2
  3101                           
  3102  0043                     ??_TMR4_Initialize:	
  3103                           ; 1 bytes @ 0x2
  3104                           
  3105  0043                     ??_IOCBF7_SetInterruptHandler:	
  3106                           ; 1 bytes @ 0x2
  3107                           
  3108  0043                     ??_TMR4_SetInterruptHandler:	
  3109                           ; 1 bytes @ 0x2
  3110                           
  3111  0043                     ??_EPWM2_LoadDutyValue:	
  3112                           ; 1 bytes @ 0x2
  3113                           
  3114  0043                     ??_EPWM1_LoadDutyValue:	
  3115                           ; 1 bytes @ 0x2
  3116                           
  3117  0043                     ??_INT_SetInterruptHandler:	
  3118                           ; 1 bytes @ 0x2
  3119                           
  3120  0043                     ??_EXT_INT_Initialize:	
  3121                           ; 1 bytes @ 0x2
  3122                           
  3123  0043                     ??_SYSTEM_Initialize:	
  3124                           ; 1 bytes @ 0x2
  3125                           
  3126  0043                     ??_PWM4_LoadDutyValue:	
  3127                           ; 1 bytes @ 0x2
  3128                           
  3129  0043                     I2C1_Open@returnValue:	
  3130                           ; 1 bytes @ 0x2
  3131                           
  3132  0043                     I2C1_SetCallback@ptr:	
  3133                           ; 1 bytes @ 0x2
  3134                           
  3135                           
  3136                           ; 1 bytes @ 0x2
  3137  0043                     	ds	1
  3138  0044                     ??_I2C1_SetCallback:
  3139  0044                     I2C1_SetBuffer@buffer:	
  3140                           ; 1 bytes @ 0x3
  3141                           
  3142                           
  3143                           ; 1 bytes @ 0x3
  3144  0044                     	ds	1
  3145  0045                     I2C1_SetCallback@idx:
  3146                           
  3147                           ; 1 bytes @ 0x4
  3148  0045                     	ds	1
  3149  0046                     ?_I2C1_SetDataCompleteCallback:
  3150  0046                     ?_I2C1_SetAddressNackCallback:	
  3151                           ; 1 bytes @ 0x5
  3152                           
  3153  0046                     I2C1_SetDataCompleteCallback@cb:	
  3154                           ; 1 bytes @ 0x5
  3155                           
  3156  0046                     I2C1_SetAddressNackCallback@cb:	
  3157                           ; 2 bytes @ 0x5
  3158                           
  3159                           
  3160                           ; 2 bytes @ 0x5
  3161  0046                     	ds	2
  3162  0048                     I2C1_SetDataCompleteCallback@ptr:
  3163  0048                     I2C1_SetAddressNackCallback@ptr:	
  3164                           ; 1 bytes @ 0x7
  3165                           
  3166                           
  3167                           ; 1 bytes @ 0x7
  3168  0048                     	ds	1
  3169  0049                     ??_I2C1_SetDataCompleteCallback:
  3170  0049                     ??_I2C1_SetAddressNackCallback:	
  3171                           ; 1 bytes @ 0x8
  3172                           
  3173                           
  3174                           ; 1 bytes @ 0x8
  3175  0049                     	ds	1
  3176  004A                     ?_rd1RegCompleteHandler:
  3177  004A                     ?_rd2RegCompleteHandler:	
  3178                           ; 1 bytes @ 0x9
  3179                           
  3180  004A                     ?_wr1RegCompleteHandler:	
  3181                           ; 1 bytes @ 0x9
  3182                           
  3183  004A                     ?_wr2RegCompleteHandler:	
  3184                           ; 1 bytes @ 0x9
  3185                           
  3186  004A                     ?_rdBlkRegCompleteHandler:	
  3187                           ; 1 bytes @ 0x9
  3188                           
  3189  004A                     ?_I2C1_CallbackReturnStop:	
  3190                           ; 1 bytes @ 0x9
  3191                           
  3192  004A                     ?_I2C1_CallbackReturnReset:	
  3193                           ; 1 bytes @ 0x9
  3194                           
  3195  004A                     rd1RegCompleteHandler@ptr:	
  3196                           ; 1 bytes @ 0x9
  3197                           
  3198  004A                     rd2RegCompleteHandler@ptr:	
  3199                           ; 1 bytes @ 0x9
  3200                           
  3201  004A                     wr1RegCompleteHandler@ptr:	
  3202                           ; 1 bytes @ 0x9
  3203                           
  3204  004A                     wr2RegCompleteHandler@ptr:	
  3205                           ; 1 bytes @ 0x9
  3206                           
  3207  004A                     rdBlkRegCompleteHandler@ptr:	
  3208                           ; 1 bytes @ 0x9
  3209                           
  3210  004A                     I2C1_CallbackReturnStop@funPtr:	
  3211                           ; 1 bytes @ 0x9
  3212                           
  3213  004A                     I2C1_CallbackReturnReset@funPtr:	
  3214                           ; 1 bytes @ 0x9
  3215                           
  3216                           
  3217                           ; 1 bytes @ 0x9
  3218  004A                     	ds	1
  3219  004B                     ??_rd1RegCompleteHandler:
  3220  004B                     ??_rd2RegCompleteHandler:	
  3221                           ; 1 bytes @ 0xA
  3222                           
  3223  004B                     ??_wr1RegCompleteHandler:	
  3224                           ; 1 bytes @ 0xA
  3225                           
  3226  004B                     ??_wr2RegCompleteHandler:	
  3227                           ; 1 bytes @ 0xA
  3228                           
  3229  004B                     ??_rdBlkRegCompleteHandler:	
  3230                           ; 1 bytes @ 0xA
  3231                           
  3232  004B                     ??_I2C1_DO_TX:	
  3233                           ; 1 bytes @ 0xA
  3234                           
  3235  004B                     ??_I2C1_DO_RX:	
  3236                           ; 1 bytes @ 0xA
  3237                           
  3238  004B                     ??_I2C1_DO_TX_EMPTY:	
  3239                           ; 1 bytes @ 0xA
  3240                           
  3241  004B                     ??_I2C1_DO_ADDRESS_NACK:	
  3242                           ; 1 bytes @ 0xA
  3243                           
  3244  004B                     ??_I2C1_CallbackReturnStop:	
  3245                           ; 1 bytes @ 0xA
  3246                           
  3247  004B                     ??_I2C1_CallbackReturnReset:	
  3248                           ; 1 bytes @ 0xA
  3249                           
  3250                           
  3251                           ; 1 bytes @ 0xA
  3252  004B                     	ds	3
  3253  004E                     ??_I2C1_MasterFsm:
  3254                           
  3255                           ; 1 bytes @ 0xD
  3256  004E                     	ds	3
  3257  0051                     ??_I2C1_Poller:
  3258  0051                     ??_I2C1_MasterOperation:	
  3259                           ; 1 bytes @ 0x10
  3260                           
  3261                           
  3262                           ; 1 bytes @ 0x10
  3263  0051                     	ds	1
  3264  0052                     I2C1_MasterOperation@read:
  3265                           
  3266                           ; 1 bytes @ 0x11
  3267  0052                     	ds	1
  3268  0053                     I2C1_MasterOperation@returnValue:
  3269                           
  3270                           ; 1 bytes @ 0x12
  3271  0053                     	ds	1
  3272  0054                     ??_I2C1_MasterWrite:
  3273  0054                     ?_I2C1_Read1ByteRegister:	
  3274                           ; 1 bytes @ 0x13
  3275                           
  3276  0054                     ?_I2C1_Write1ByteRegister:	
  3277                           ; 1 bytes @ 0x13
  3278                           
  3279  0054                     I2C1_Read1ByteRegister@reg:	
  3280                           ; 1 bytes @ 0x13
  3281                           
  3282  0054                     I2C1_Write1ByteRegister@reg:	
  3283                           ; 1 bytes @ 0x13
  3284                           
  3285                           
  3286                           ; 1 bytes @ 0x13
  3287  0054                     	ds	1
  3288  0055                     ??_I2C1_Read1ByteRegister:
  3289  0055                     I2C1_Write1ByteRegister@data:	
  3290                           ; 1 bytes @ 0x14
  3291                           
  3292                           
  3293                           ; 1 bytes @ 0x14
  3294  0055                     	ds	1
  3295  0056                     ??_I2C1_Write1ByteRegister:
  3296  0056                     I2C1_Read1ByteRegister@address:	
  3297                           ; 1 bytes @ 0x15
  3298                           
  3299                           
  3300                           ; 1 bytes @ 0x15
  3301  0056                     	ds	1
  3302  0057                     I2C1_Read1ByteRegister@returnValue:
  3303  0057                     I2C1_Write1ByteRegister@address:	
  3304                           ; 1 bytes @ 0x16
  3305                           
  3306                           
  3307                           ; 1 bytes @ 0x16
  3308  0057                     	ds	1
  3309  0058                     ??_main:
  3310                           
  3311                           ; 1 bytes @ 0x17
  3312  0058                     	ds	2
  3313  005A                     main@data:
  3314                           
  3315                           ; 1 bytes @ 0x19
  3316  005A                     	ds	1
  3317  005B                     main@data_x:
  3318                           
  3319                           ; 1 bytes @ 0x1A
  3320  005B                     	ds	1
  3321  005C                     main@data_y:
  3322                           
  3323                           ; 1 bytes @ 0x1B
  3324  005C                     	ds	1
  3325  005D                     main@data_z:
  3326                           
  3327                           ; 1 bytes @ 0x1C
  3328  005D                     	ds	1
  3329                           
  3330                           	psect	maintext
  3331  0042                     __pmaintext:	
  3332 ;;
  3333 ;;Main: autosize = 0, tempsize = 2, incstack = 0, save=0
  3334 ;;
  3335 ;; *************** function _main *****************
  3336 ;; Defined at:
  3337 ;;		line 107 in file "main.c"
  3338 ;; Parameters:    Size  Location     Type
  3339 ;;		None
  3340 ;; Auto vars:     Size  Location     Type
  3341 ;;  data_z          1   28[BANK0 ] char 
  3342 ;;  data_y          1   27[BANK0 ] char 
  3343 ;;  data_x          1   26[BANK0 ] char 
  3344 ;;  data            1   25[BANK0 ] unsigned char 
  3345 ;; Return value:  Size  Location     Type
  3346 ;;                  1    wreg      void 
  3347 ;; Registers used:
  3348 ;;		wreg, fsr0l, fsr0h, fsr1l, fsr1h, status,2, status,0, pclath, cstack
  3349 ;; Tracked objects:
  3350 ;;		On entry : B1F/0
  3351 ;;		On exit  : 0/0
  3352 ;;		Unchanged: 0/0
  3353 ;; Data sizes:     COMMON   BANK0   BANK1   BANK2   BANK3   BANK4   BANK5   BANK6   BANK7   BANK8   BANK9  BANK10  BANK1
      +1  BANK12
  3354 ;;      Params:         0       0       0       0       0       0       0       0       0       0       0       0       
      +0       0
  3355 ;;      Locals:         0       4       0       0       0       0       0       0       0       0       0       0       
      +0       0
  3356 ;;      Temps:          0       2       0       0       0       0       0       0       0       0       0       0       
      +0       0
  3357 ;;      Totals:         0       6       0       0       0       0       0       0       0       0       0       0       
      +0       0
  3358 ;;Total ram usage:        6 bytes
  3359 ;; Hardware stack levels required when called: 15
  3360 ;; This function calls:
  3361 ;;		_DELAY_milliseconds
  3362 ;;		_EPWM1_LoadDutyValue
  3363 ;;		_EPWM2_LoadDutyValue
  3364 ;;		_I2C1_Read1ByteRegister
  3365 ;;		_I2C1_Write1ByteRegister
  3366 ;;		_INT_SetInterruptHandler
  3367 ;;		_IOCBF7_SetInterruptHandler
  3368 ;;		_PWM4_LoadDutyValue
  3369 ;;		_SYSTEM_Initialize
  3370 ;;		_TMR4_SetInterruptHandler
  3371 ;; This function is called by:
  3372 ;;		Startup code after reset
  3373 ;; This function uses a non-reentrant model
  3374 ;;
  3375                           
  3376                           
  3377                           ;psect for function _main
  3378  0042                     _main:
  3379  0042                     l4074:	
  3380                           ;incstack = 0
  3381                           ; Regs used in _main: [wreg-fsr1h+status,2+status,0+pclath+cstack]
  3382                           
  3383                           
  3384                           ;main.c: 110:     SYSTEM_Initialize();
  3385  0042  3184  247F  3180   	fcall	_SYSTEM_Initialize
  3386                           
  3387                           ;main.c: 113:     INT_SetInterruptHandler(WakeUpInterrupt);
  3388  0045  30A8               	movlw	low _WakeUpInterrupt
  3389  0046  0020               	movlb	0	; select bank0
  3390  0047  00C1               	movwf	INT_SetInterruptHandler@InterruptHandler
  3391  0048  3007               	movlw	high _WakeUpInterrupt
  3392  0049  00C2               	movwf	INT_SetInterruptHandler@InterruptHandler+1
  3393  004A  3187  2720  3180   	fcall	_INT_SetInterruptHandler
  3394                           
  3395                           ;main.c: 114:     IOCBF7_SetInterruptHandler(ButtonInterrupt);
  3396  004D  307F               	movlw	low _ButtonInterrupt
  3397  004E  0020               	movlb	0	; select bank0
  3398  004F  00C1               	movwf	IOCBF7_SetInterruptHandler@InterruptHandler
  3399  0050  3007               	movlw	high _ButtonInterrupt
  3400  0051  00C2               	movwf	IOCBF7_SetInterruptHandler@InterruptHandler+1
  3401  0052  3187  271A  3180   	fcall	_IOCBF7_SetInterruptHandler
  3402                           
  3403                           ;main.c: 115:     TMR4_SetInterruptHandler(TimerInterrupt);
  3404  0055  307B               	movlw	low _TimerInterrupt
  3405  0056  0020               	movlb	0	; select bank0
  3406  0057  00C1               	movwf	TMR4_SetInterruptHandler@InterruptHandler
  3407  0058  3007               	movlw	high _TimerInterrupt
  3408  0059  00C2               	movwf	TMR4_SetInterruptHandler@InterruptHandler+1
  3409  005A  3187  2714  3180   	fcall	_TMR4_SetInterruptHandler
  3410  005D                     l4076:
  3411                           
  3412                           ;main.c: 121:     (INTCONbits.GIE = 1);
  3413  005D  178B               	bsf	11,7	;volatile
  3414  005E                     l4078:
  3415                           
  3416                           ;main.c: 124:     (INTCONbits.PEIE = 1);
  3417  005E  170B               	bsf	11,6	;volatile
  3418  005F                     l4080:
  3419                           
  3420                           ;main.c: 135:     I2C1_Write1ByteRegister(0x0E, 0x1D, 0b10000000);
  3421  005F  301D               	movlw	29
  3422  0060  0020               	movlb	0	; select bank0
  3423  0061  00D8               	movwf	??_main
  3424  0062  0858               	movf	??_main,w
  3425  0063  00D4               	movwf	I2C1_Write1ByteRegister@reg
  3426  0064  3080               	movlw	128
  3427  0065  00D9               	movwf	??_main+1
  3428  0066  0859               	movf	??_main+1,w
  3429  0067  00D5               	movwf	I2C1_Write1ByteRegister@data
  3430  0068  300E               	movlw	14
  3431  0069  3183  234E  3180   	fcall	_I2C1_Write1ByteRegister
  3432  006C                     l4082:
  3433                           
  3434                           ;main.c: 136:     DELAY_milliseconds(1000);
  3435  006C  30E8               	movlw	232
  3436  006D  0020               	movlb	0	; select bank0
  3437  006E  00C1               	movwf	DELAY_milliseconds@milliseconds
  3438  006F  3003               	movlw	3
  3439  0070  00C2               	movwf	DELAY_milliseconds@milliseconds+1
  3440  0071  3185  2547  3180   	fcall	_DELAY_milliseconds
  3441                           
  3442                           ;main.c: 138:     uint8_t data;;main.c: 139:     data = I2C1_Read1ByteRegister(0x0E, 0x0
      +                          F);
  3443  0074  300F               	movlw	15
  3444  0075  0020               	movlb	0	; select bank0
  3445  0076  00D8               	movwf	??_main
  3446  0077  0858               	movf	??_main,w
  3447  0078  00D4               	movwf	I2C1_Read1ByteRegister@reg
  3448  0079  300E               	movlw	14
  3449  007A  3183  2316  3180   	fcall	_I2C1_Read1ByteRegister
  3450  007D  0020               	movlb	0	; select bank0
  3451  007E  00D9               	movwf	??_main+1
  3452  007F  0859               	movf	??_main+1,w
  3453  0080  00DA               	movwf	main@data
  3454                           
  3455                           ;main.c: 142:     I2C1_Write1ByteRegister(0x0E, 0x1E, 0b00101000);
  3456  0081  301E               	movlw	30
  3457  0082  00D8               	movwf	??_main
  3458  0083  0858               	movf	??_main,w
  3459  0084  00D4               	movwf	I2C1_Write1ByteRegister@reg
  3460  0085  3028               	movlw	40
  3461  0086  00D9               	movwf	??_main+1
  3462  0087  0859               	movf	??_main+1,w
  3463  0088  00D5               	movwf	I2C1_Write1ByteRegister@data
  3464  0089  300E               	movlw	14
  3465  008A  3183  234E  3180   	fcall	_I2C1_Write1ByteRegister
  3466                           
  3467                           ;main.c: 143:     I2C1_Write1ByteRegister(0x0E, 0x1F, 0b10111111);
  3468  008D  301F               	movlw	31
  3469  008E  0020               	movlb	0	; select bank0
  3470  008F  00D8               	movwf	??_main
  3471  0090  0858               	movf	??_main,w
  3472  0091  00D4               	movwf	I2C1_Write1ByteRegister@reg
  3473  0092  30BF               	movlw	191
  3474  0093  00D9               	movwf	??_main+1
  3475  0094  0859               	movf	??_main+1,w
  3476  0095  00D5               	movwf	I2C1_Write1ByteRegister@data
  3477  0096  300E               	movlw	14
  3478  0097  3183  234E  3180   	fcall	_I2C1_Write1ByteRegister
  3479                           
  3480                           ;main.c: 144:     I2C1_Write1ByteRegister(0x0E, 0x1B, 0b00000000);
  3481  009A  301B               	movlw	27
  3482  009B  0020               	movlb	0	; select bank0
  3483  009C  00D8               	movwf	??_main
  3484  009D  0858               	movf	??_main,w
  3485  009E  00D4               	movwf	I2C1_Write1ByteRegister@reg
  3486  009F  01D5               	clrf	I2C1_Write1ByteRegister@data
  3487  00A0  300E               	movlw	14
  3488  00A1  3183  234E  3180   	fcall	_I2C1_Write1ByteRegister
  3489                           
  3490                           ;main.c: 145:     I2C1_Write1ByteRegister(0x0E, 0x1B, 0b00000010);
  3491  00A4  301B               	movlw	27
  3492  00A5  0020               	movlb	0	; select bank0
  3493  00A6  00D8               	movwf	??_main
  3494  00A7  0858               	movf	??_main,w
  3495  00A8  00D4               	movwf	I2C1_Write1ByteRegister@reg
  3496  00A9  3002               	movlw	2
  3497  00AA  00D9               	movwf	??_main+1
  3498  00AB  0859               	movf	??_main+1,w
  3499  00AC  00D5               	movwf	I2C1_Write1ByteRegister@data
  3500  00AD  300E               	movlw	14
  3501  00AE  3183  234E  3180   	fcall	_I2C1_Write1ByteRegister
  3502                           
  3503                           ;main.c: 146:     I2C1_Write1ByteRegister(0x0E, 0x1B, 0b10000010);
  3504  00B1  301B               	movlw	27
  3505  00B2  0020               	movlb	0	; select bank0
  3506  00B3  00D8               	movwf	??_main
  3507  00B4  0858               	movf	??_main,w
  3508  00B5  00D4               	movwf	I2C1_Write1ByteRegister@reg
  3509  00B6  3082               	movlw	130
  3510  00B7  00D9               	movwf	??_main+1
  3511  00B8  0859               	movf	??_main+1,w
  3512  00B9  00D5               	movwf	I2C1_Write1ByteRegister@data
  3513  00BA  300E               	movlw	14
  3514  00BB  3183  234E  3180   	fcall	_I2C1_Write1ByteRegister
  3515                           
  3516                           ;main.c: 148:     data = I2C1_Read1ByteRegister(0x0E, 0x1B);
  3517  00BE  301B               	movlw	27
  3518  00BF  0020               	movlb	0	; select bank0
  3519  00C0  00D8               	movwf	??_main
  3520  00C1  0858               	movf	??_main,w
  3521  00C2  00D4               	movwf	I2C1_Read1ByteRegister@reg
  3522  00C3  300E               	movlw	14
  3523  00C4  3183  2316  3180   	fcall	_I2C1_Read1ByteRegister
  3524  00C7  0020               	movlb	0	; select bank0
  3525  00C8  00D9               	movwf	??_main+1
  3526  00C9  0859               	movf	??_main+1,w
  3527  00CA  00DA               	movwf	main@data
  3528  00CB                     l4084:
  3529                           
  3530                           ;main.c: 151:     EPWM1_LoadDutyValue(0);
  3531  00CB  3000               	movlw	0
  3532  00CC  00C1               	movwf	EPWM1_LoadDutyValue@dutyValue
  3533  00CD  00C2               	movwf	EPWM1_LoadDutyValue@dutyValue+1
  3534  00CE  3185  2511  3180   	fcall	_EPWM1_LoadDutyValue
  3535  00D1                     l4086:
  3536                           
  3537                           ;main.c: 152:     EPWM2_LoadDutyValue(0);
  3538  00D1  3000               	movlw	0
  3539  00D2  0020               	movlb	0	; select bank0
  3540  00D3  00C1               	movwf	EPWM2_LoadDutyValue@dutyValue
  3541  00D4  00C2               	movwf	EPWM2_LoadDutyValue@dutyValue+1
  3542  00D5  3184  24F5  3180   	fcall	_EPWM2_LoadDutyValue
  3543  00D8                     l4088:
  3544                           
  3545                           ;main.c: 153:     PWM4_LoadDutyValue(0);
  3546  00D8  3000               	movlw	0
  3547  00D9  0020               	movlb	0	; select bank0
  3548  00DA  00C1               	movwf	PWM4_LoadDutyValue@dutyValue
  3549  00DB  00C2               	movwf	PWM4_LoadDutyValue@dutyValue+1
  3550  00DC  3184  24BD  3180   	fcall	_PWM4_LoadDutyValue
  3551  00DF                     l4090:
  3552                           
  3553                           ;main.c: 162:     {;main.c: 164:         data_x = I2C1_Read1ByteRegister(0x0E, 0x07);
  3554  00DF  3007               	movlw	7
  3555  00E0  0020               	movlb	0	; select bank0
  3556  00E1  00D8               	movwf	??_main
  3557  00E2  0858               	movf	??_main,w
  3558  00E3  00D4               	movwf	I2C1_Read1ByteRegister@reg
  3559  00E4  300E               	movlw	14
  3560  00E5  3183  2316  3180   	fcall	_I2C1_Read1ByteRegister
  3561  00E8  0020               	movlb	0	; select bank0
  3562  00E9  00D9               	movwf	??_main+1
  3563  00EA  0859               	movf	??_main+1,w
  3564  00EB  00DB               	movwf	main@data_x
  3565  00EC                     l4092:
  3566                           
  3567                           ;main.c: 165:         data_y = I2C1_Read1ByteRegister(0x0E, 0x09);
  3568  00EC  3009               	movlw	9
  3569  00ED  00D8               	movwf	??_main
  3570  00EE  0858               	movf	??_main,w
  3571  00EF  00D4               	movwf	I2C1_Read1ByteRegister@reg
  3572  00F0  300E               	movlw	14
  3573  00F1  3183  2316  3180   	fcall	_I2C1_Read1ByteRegister
  3574  00F4  0020               	movlb	0	; select bank0
  3575  00F5  00D9               	movwf	??_main+1
  3576  00F6  0859               	movf	??_main+1,w
  3577  00F7  00DC               	movwf	main@data_y
  3578  00F8                     l4094:
  3579                           
  3580                           ;main.c: 166:         data_z = I2C1_Read1ByteRegister(0x0E, 0x0B);
  3581  00F8  300B               	movlw	11
  3582  00F9  00D8               	movwf	??_main
  3583  00FA  0858               	movf	??_main,w
  3584  00FB  00D4               	movwf	I2C1_Read1ByteRegister@reg
  3585  00FC  300E               	movlw	14
  3586  00FD  3183  2316  3180   	fcall	_I2C1_Read1ByteRegister
  3587  0100  0020               	movlb	0	; select bank0
  3588  0101  00D9               	movwf	??_main+1
  3589  0102  0859               	movf	??_main+1,w
  3590  0103  00DD               	movwf	main@data_z
  3591  0104                     l4096:
  3592                           
  3593                           ;main.c: 168:         if (data_x > 0)
  3594  0104  085B               	movf	main@data_x,w
  3595  0105  3A80               	xorlw	128
  3596  0106  3E7F               	addlw	-129
  3597  0107  1C03               	skipc
  3598  0108  290A               	goto	u1531
  3599  0109  290B               	goto	u1530
  3600  010A                     u1531:
  3601  010A  2914               	goto	l4100
  3602  010B                     u1530:
  3603  010B                     l4098:
  3604                           
  3605                           ;main.c: 169:             EPWM1_LoadDutyValue(data_x);
  3606  010B  085B               	movf	main@data_x,w
  3607  010C  00C1               	movwf	EPWM1_LoadDutyValue@dutyValue
  3608  010D  01C2               	clrf	EPWM1_LoadDutyValue@dutyValue+1
  3609  010E  1BC1               	btfsc	EPWM1_LoadDutyValue@dutyValue,7
  3610  010F  03C2               	decf	EPWM1_LoadDutyValue@dutyValue+1,f
  3611  0110  3185  2511  3180   	fcall	_EPWM1_LoadDutyValue
  3612  0113  2925               	goto	l4102
  3613  0114                     l4100:
  3614                           
  3615                           ;main.c: 171:             EPWM1_LoadDutyValue(data_x * (-1));
  3616  0114  085B               	movf	main@data_x,w
  3617  0115  00D8               	movwf	??_main
  3618  0116  01D9               	clrf	??_main+1
  3619  0117  1BD8               	btfsc	??_main,7
  3620  0118  03D9               	decf	??_main+1,f
  3621  0119  09D8               	comf	??_main,f
  3622  011A  09D9               	comf	??_main+1,f
  3623  011B  0AD8               	incf	??_main,f
  3624  011C  1903               	skipnz
  3625  011D  0AD9               	incf	??_main+1,f
  3626  011E  0858               	movf	??_main,w
  3627  011F  00C1               	movwf	EPWM1_LoadDutyValue@dutyValue
  3628  0120  0859               	movf	??_main+1,w
  3629  0121  00C2               	movwf	EPWM1_LoadDutyValue@dutyValue+1
  3630  0122  3185  2511  3180   	fcall	_EPWM1_LoadDutyValue
  3631  0125                     l4102:
  3632                           
  3633                           ;main.c: 173:         if (data_y > 0)
  3634  0125  0020               	movlb	0	; select bank0
  3635  0126  085C               	movf	main@data_y,w
  3636  0127  3A80               	xorlw	128
  3637  0128  3E7F               	addlw	-129
  3638  0129  1C03               	skipc
  3639  012A  292C               	goto	u1541
  3640  012B  292D               	goto	u1540
  3641  012C                     u1541:
  3642  012C  2936               	goto	l4106
  3643  012D                     u1540:
  3644  012D                     l4104:
  3645                           
  3646                           ;main.c: 174:             EPWM2_LoadDutyValue(data_y);
  3647  012D  085C               	movf	main@data_y,w
  3648  012E  00C1               	movwf	EPWM2_LoadDutyValue@dutyValue
  3649  012F  01C2               	clrf	EPWM2_LoadDutyValue@dutyValue+1
  3650  0130  1BC1               	btfsc	EPWM2_LoadDutyValue@dutyValue,7
  3651  0131  03C2               	decf	EPWM2_LoadDutyValue@dutyValue+1,f
  3652  0132  3184  24F5  3180   	fcall	_EPWM2_LoadDutyValue
  3653  0135  2947               	goto	l4108
  3654  0136                     l4106:
  3655                           
  3656                           ;main.c: 176:             EPWM2_LoadDutyValue(data_y * (-1));
  3657  0136  085C               	movf	main@data_y,w
  3658  0137  00D8               	movwf	??_main
  3659  0138  01D9               	clrf	??_main+1
  3660  0139  1BD8               	btfsc	??_main,7
  3661  013A  03D9               	decf	??_main+1,f
  3662  013B  09D8               	comf	??_main,f
  3663  013C  09D9               	comf	??_main+1,f
  3664  013D  0AD8               	incf	??_main,f
  3665  013E  1903               	skipnz
  3666  013F  0AD9               	incf	??_main+1,f
  3667  0140  0858               	movf	??_main,w
  3668  0141  00C1               	movwf	EPWM2_LoadDutyValue@dutyValue
  3669  0142  0859               	movf	??_main+1,w
  3670  0143  00C2               	movwf	EPWM2_LoadDutyValue@dutyValue+1
  3671  0144  3184  24F5  3180   	fcall	_EPWM2_LoadDutyValue
  3672  0147                     l4108:
  3673                           
  3674                           ;main.c: 178:         if (data_z > 0)
  3675  0147  0020               	movlb	0	; select bank0
  3676  0148  085D               	movf	main@data_z,w
  3677  0149  3A80               	xorlw	128
  3678  014A  3E7F               	addlw	-129
  3679  014B  1C03               	skipc
  3680  014C  294E               	goto	u1551
  3681  014D  294F               	goto	u1550
  3682  014E                     u1551:
  3683  014E  2958               	goto	l4112
  3684  014F                     u1550:
  3685  014F                     l4110:
  3686                           
  3687                           ;main.c: 179:             PWM4_LoadDutyValue(data_z);
  3688  014F  085D               	movf	main@data_z,w
  3689  0150  00C1               	movwf	PWM4_LoadDutyValue@dutyValue
  3690  0151  01C2               	clrf	PWM4_LoadDutyValue@dutyValue+1
  3691  0152  1BC1               	btfsc	PWM4_LoadDutyValue@dutyValue,7
  3692  0153  03C2               	decf	PWM4_LoadDutyValue@dutyValue+1,f
  3693  0154  3184  24BD  3180   	fcall	_PWM4_LoadDutyValue
  3694  0157  28DF               	goto	l4090
  3695  0158                     l4112:
  3696                           
  3697                           ;main.c: 181:             PWM4_LoadDutyValue(data_z * (-1));
  3698  0158  085D               	movf	main@data_z,w
  3699  0159  00D8               	movwf	??_main
  3700  015A  01D9               	clrf	??_main+1
  3701  015B  1BD8               	btfsc	??_main,7
  3702  015C  03D9               	decf	??_main+1,f
  3703  015D  09D8               	comf	??_main,f
  3704  015E  09D9               	comf	??_main+1,f
  3705  015F  0AD8               	incf	??_main,f
  3706  0160  1903               	skipnz
  3707  0161  0AD9               	incf	??_main+1,f
  3708  0162  0858               	movf	??_main,w
  3709  0163  00C1               	movwf	PWM4_LoadDutyValue@dutyValue
  3710  0164  0859               	movf	??_main+1,w
  3711  0165  00C2               	movwf	PWM4_LoadDutyValue@dutyValue+1
  3712  0166  3184  24BD  3180   	fcall	_PWM4_LoadDutyValue
  3713  0169  28DF               	goto	l4090
  3714  016A  3180  2832         	ljmp	start
  3715  016C                     __end_of_main:
  3716                           
  3717                           	psect	text1
  3718  047F                     __ptext1:	
  3719 ;; *************** function _SYSTEM_Initialize *****************
  3720 ;; Defined at:
  3721 ;;		line 50 in file "mcc_generated_files/mcc.c"
  3722 ;; Parameters:    Size  Location     Type
  3723 ;;		None
  3724 ;; Auto vars:     Size  Location     Type
  3725 ;;		None
  3726 ;; Return value:  Size  Location     Type
  3727 ;;                  1    wreg      void 
  3728 ;; Registers used:
  3729 ;;		wreg, status,2, status,0, pclath, cstack
  3730 ;; Tracked objects:
  3731 ;;		On entry : 0/0
  3732 ;;		On exit  : 0/0
  3733 ;;		Unchanged: 0/0
  3734 ;; Data sizes:     COMMON   BANK0   BANK1   BANK2   BANK3   BANK4   BANK5   BANK6   BANK7   BANK8   BANK9  BANK10  BANK1
      +1  BANK12
  3735 ;;      Params:         0       0       0       0       0       0       0       0       0       0       0       0       
      +0       0
  3736 ;;      Locals:         0       0       0       0       0       0       0       0       0       0       0       0       
      +0       0
  3737 ;;      Temps:          0       0       0       0       0       0       0       0       0       0       0       0       
      +0       0
  3738 ;;      Totals:         0       0       0       0       0       0       0       0       0       0       0       0       
      +0       0
  3739 ;;Total ram usage:        0 bytes
  3740 ;; Hardware stack levels used: 1
  3741 ;; Hardware stack levels required when called: 8
  3742 ;; This function calls:
  3743 ;;		_EPWM1_Initialize
  3744 ;;		_EPWM2_Initialize
  3745 ;;		_EXT_INT_Initialize
  3746 ;;		_I2C1_Initialize
  3747 ;;		_OSCILLATOR_Initialize
  3748 ;;		_PIN_MANAGER_Initialize
  3749 ;;		_PWM4_Initialize
  3750 ;;		_TMR2_Initialize
  3751 ;;		_TMR4_Initialize
  3752 ;;		_WDT_Initialize
  3753 ;; This function is called by:
  3754 ;;		_main
  3755 ;; This function uses a non-reentrant model
  3756 ;;
  3757                           
  3758                           
  3759                           ;psect for function _SYSTEM_Initialize
  3760  047F                     _SYSTEM_Initialize:
  3761  047F                     l3968:	
  3762                           ;incstack = 0
  3763                           ; Regs used in _SYSTEM_Initialize: [wreg+status,2+status,0+pclath+cstack]
  3764                           
  3765                           
  3766                           ;mcc_generated_files/mcc.c: 53:     I2C1_Initialize();
  3767  047F  3186  26DC  3184   	fcall	_I2C1_Initialize
  3768                           
  3769                           ;mcc_generated_files/mcc.c: 54:     PIN_MANAGER_Initialize();
  3770  0482  3183  23B3  3184   	fcall	_PIN_MANAGER_Initialize
  3771                           
  3772                           ;mcc_generated_files/mcc.c: 55:     OSCILLATOR_Initialize();
  3773  0485  3186  26C6  3184   	fcall	_OSCILLATOR_Initialize
  3774                           
  3775                           ;mcc_generated_files/mcc.c: 56:     WDT_Initialize();
  3776  0488  3187  276F  3184   	fcall	_WDT_Initialize
  3777                           
  3778                           ;mcc_generated_files/mcc.c: 57:     EPWM2_Initialize();
  3779  048B  3186  263F  3184   	fcall	_EPWM2_Initialize
  3780                           
  3781                           ;mcc_generated_files/mcc.c: 58:     EPWM1_Initialize();
  3782  048E  3186  264D  3184   	fcall	_EPWM1_Initialize
  3783                           
  3784                           ;mcc_generated_files/mcc.c: 59:     TMR4_Initialize();
  3785  0491  3185  25CF  3184   	fcall	_TMR4_Initialize
  3786                           
  3787                           ;mcc_generated_files/mcc.c: 60:     PWM4_Initialize();
  3788  0494  3186  26D2  3184   	fcall	_PWM4_Initialize
  3789                           
  3790                           ;mcc_generated_files/mcc.c: 61:     TMR2_Initialize();
  3791  0497  3186  26F7  3184   	fcall	_TMR2_Initialize
  3792                           
  3793                           ;mcc_generated_files/mcc.c: 62:     EXT_INT_Initialize();
  3794  049A  3186  2685  3184   	fcall	_EXT_INT_Initialize
  3795  049D                     l303:
  3796  049D  0008               	return
  3797  049E                     __end_of_SYSTEM_Initialize:
  3798                           
  3799                           	psect	text2
  3800  076F                     __ptext2:	
  3801 ;; *************** function _WDT_Initialize *****************
  3802 ;; Defined at:
  3803 ;;		line 79 in file "mcc_generated_files/mcc.c"
  3804 ;; Parameters:    Size  Location     Type
  3805 ;;		None
  3806 ;; Auto vars:     Size  Location     Type
  3807 ;;		None
  3808 ;; Return value:  Size  Location     Type
  3809 ;;                  1    wreg      void 
  3810 ;; Registers used:
  3811 ;;		wreg
  3812 ;; Tracked objects:
  3813 ;;		On entry : 0/0
  3814 ;;		On exit  : 0/0
  3815 ;;		Unchanged: 0/0
  3816 ;; Data sizes:     COMMON   BANK0   BANK1   BANK2   BANK3   BANK4   BANK5   BANK6   BANK7   BANK8   BANK9  BANK10  BANK1
      +1  BANK12
  3817 ;;      Params:         0       0       0       0       0       0       0       0       0       0       0       0       
      +0       0
  3818 ;;      Locals:         0       0       0       0       0       0       0       0       0       0       0       0       
      +0       0
  3819 ;;      Temps:          0       0       0       0       0       0       0       0       0       0       0       0       
      +0       0
  3820 ;;      Totals:         0       0       0       0       0       0       0       0       0       0       0       0       
      +0       0
  3821 ;;Total ram usage:        0 bytes
  3822 ;; Hardware stack levels used: 1
  3823 ;; Hardware stack levels required when called: 6
  3824 ;; This function calls:
  3825 ;;		Nothing
  3826 ;; This function is called by:
  3827 ;;		_SYSTEM_Initialize
  3828 ;; This function uses a non-reentrant model
  3829 ;;
  3830                           
  3831                           
  3832                           ;psect for function _WDT_Initialize
  3833  076F                     _WDT_Initialize:
  3834  076F                     l3908:	
  3835                           ;incstack = 0
  3836                           ; Regs used in _WDT_Initialize: [wreg]
  3837                           
  3838                           
  3839                           ;mcc_generated_files/mcc.c: 82:     WDTCON = 0x16;
  3840  076F  3016               	movlw	22
  3841  0770  0021               	movlb	1	; select bank1
  3842  0771  0097               	movwf	23	;volatile
  3843  0772                     l312:
  3844  0772  0008               	return
  3845  0773                     __end_of_WDT_Initialize:
  3846                           
  3847                           	psect	text3
  3848  05CF                     __ptext3:	
  3849 ;; *************** function _TMR4_Initialize *****************
  3850 ;; Defined at:
  3851 ;;		line 64 in file "mcc_generated_files/tmr4.c"
  3852 ;; Parameters:    Size  Location     Type
  3853 ;;		None
  3854 ;; Auto vars:     Size  Location     Type
  3855 ;;		None
  3856 ;; Return value:  Size  Location     Type
  3857 ;;                  1    wreg      void 
  3858 ;; Registers used:
  3859 ;;		wreg, status,2, status,0, pclath, cstack
  3860 ;; Tracked objects:
  3861 ;;		On entry : 0/0
  3862 ;;		On exit  : 0/0
  3863 ;;		Unchanged: 0/0
  3864 ;; Data sizes:     COMMON   BANK0   BANK1   BANK2   BANK3   BANK4   BANK5   BANK6   BANK7   BANK8   BANK9  BANK10  BANK1
      +1  BANK12
  3865 ;;      Params:         0       0       0       0       0       0       0       0       0       0       0       0       
      +0       0
  3866 ;;      Locals:         0       0       0       0       0       0       0       0       0       0       0       0       
      +0       0
  3867 ;;      Temps:          0       0       0       0       0       0       0       0       0       0       0       0       
      +0       0
  3868 ;;      Totals:         0       0       0       0       0       0       0       0       0       0       0       0       
      +0       0
  3869 ;;Total ram usage:        0 bytes
  3870 ;; Hardware stack levels used: 1
  3871 ;; Hardware stack levels required when called: 7
  3872 ;; This function calls:
  3873 ;;		_TMR4_SetInterruptHandler
  3874 ;; This function is called by:
  3875 ;;		_SYSTEM_Initialize
  3876 ;; This function uses a non-reentrant model
  3877 ;;
  3878                           
  3879                           
  3880                           ;psect for function _TMR4_Initialize
  3881  05CF                     _TMR4_Initialize:
  3882  05CF                     l3910:	
  3883                           ;incstack = 0
  3884                           ; Regs used in _TMR4_Initialize: [wreg+status,2+status,0+pclath+cstack]
  3885                           
  3886                           
  3887                           ;mcc_generated_files/tmr4.c: 69:     PR4 = 0xF9;
  3888  05CF  30F9               	movlw	249
  3889  05D0  0028               	movlb	8	; select bank8
  3890  05D1  0096               	movwf	22	;volatile
  3891  05D2                     l3912:
  3892                           
  3893                           ;mcc_generated_files/tmr4.c: 72:     TMR4 = 0x00;
  3894  05D2  0195               	clrf	21	;volatile
  3895  05D3                     l3914:
  3896                           
  3897                           ;mcc_generated_files/tmr4.c: 75:     PIR3bits.TMR4IF = 0;
  3898  05D3  0020               	movlb	0	; select bank0
  3899  05D4  1093               	bcf	19,1	;volatile
  3900  05D5                     l3916:
  3901                           
  3902                           ;mcc_generated_files/tmr4.c: 78:     PIE3bits.TMR4IE = 1;
  3903  05D5  0021               	movlb	1	; select bank1
  3904  05D6  1493               	bsf	19,1	;volatile
  3905  05D7                     l3918:
  3906                           
  3907                           ;mcc_generated_files/tmr4.c: 81:     TMR4_SetInterruptHandler(TMR4_DefaultInterruptHandl
      +                          er);
  3908  05D7  30A5               	movlw	low _TMR4_DefaultInterruptHandler
  3909  05D8  0020               	movlb	0	; select bank0
  3910  05D9  00C1               	movwf	TMR4_SetInterruptHandler@InterruptHandler
  3911  05DA  3007               	movlw	high _TMR4_DefaultInterruptHandler
  3912  05DB  00C2               	movwf	TMR4_SetInterruptHandler@InterruptHandler+1
  3913  05DC  3187  2714  3185   	fcall	_TMR4_SetInterruptHandler
  3914  05DF                     l3920:
  3915                           
  3916                           ;mcc_generated_files/tmr4.c: 84:     T4CON = 0x78;
  3917  05DF  3078               	movlw	120
  3918  05E0  0028               	movlb	8	; select bank8
  3919  05E1  0097               	movwf	23	;volatile
  3920  05E2                     l845:
  3921  05E2  0008               	return
  3922  05E3                     __end_of_TMR4_Initialize:
  3923                           
  3924                           	psect	text4
  3925  0714                     __ptext4:	
  3926 ;; *************** function _TMR4_SetInterruptHandler *****************
  3927 ;; Defined at:
  3928 ;;		line 147 in file "mcc_generated_files/tmr4.c"
  3929 ;; Parameters:    Size  Location     Type
  3930 ;;  InterruptHan    2    0[BANK0 ] PTR FTN()void 
  3931 ;;		 -> TMR4_DefaultInterruptHandler(1), TimerInterrupt(1), 
  3932 ;; Auto vars:     Size  Location     Type
  3933 ;;		None
  3934 ;; Return value:  Size  Location     Type
  3935 ;;                  1    wreg      void 
  3936 ;; Registers used:
  3937 ;;		wreg
  3938 ;; Tracked objects:
  3939 ;;		On entry : 0/0
  3940 ;;		On exit  : 0/0
  3941 ;;		Unchanged: 0/0
  3942 ;; Data sizes:     COMMON   BANK0   BANK1   BANK2   BANK3   BANK4   BANK5   BANK6   BANK7   BANK8   BANK9  BANK10  BANK1
      +1  BANK12
  3943 ;;      Params:         0       2       0       0       0       0       0       0       0       0       0       0       
      +0       0
  3944 ;;      Locals:         0       0       0       0       0       0       0       0       0       0       0       0       
      +0       0
  3945 ;;      Temps:          0       0       0       0       0       0       0       0       0       0       0       0       
      +0       0
  3946 ;;      Totals:         0       2       0       0       0       0       0       0       0       0       0       0       
      +0       0
  3947 ;;Total ram usage:        2 bytes
  3948 ;; Hardware stack levels used: 1
  3949 ;; Hardware stack levels required when called: 6
  3950 ;; This function calls:
  3951 ;;		Nothing
  3952 ;; This function is called by:
  3953 ;;		_main
  3954 ;;		_TMR4_Initialize
  3955 ;; This function uses a non-reentrant model
  3956 ;;
  3957                           
  3958                           
  3959                           ;psect for function _TMR4_SetInterruptHandler
  3960  0714                     _TMR4_SetInterruptHandler:
  3961  0714                     l3784:	
  3962                           ;incstack = 0
  3963                           ; Regs used in _TMR4_SetInterruptHandler: [wreg]
  3964                           
  3965                           
  3966                           ;mcc_generated_files/tmr4.c: 148:     TMR4_InterruptHandler = InterruptHandler;
  3967  0714  0020               	movlb	0	; select bank0
  3968  0715  0842               	movf	TMR4_SetInterruptHandler@InterruptHandler+1,w
  3969  0716  00BE               	movwf	_TMR4_InterruptHandler+1
  3970  0717  0841               	movf	TMR4_SetInterruptHandler@InterruptHandler,w
  3971  0718  00BD               	movwf	_TMR4_InterruptHandler
  3972  0719                     l873:
  3973  0719  0008               	return
  3974  071A                     __end_of_TMR4_SetInterruptHandler:
  3975                           
  3976                           	psect	text5
  3977  06F7                     __ptext5:	
  3978 ;; *************** function _TMR2_Initialize *****************
  3979 ;; Defined at:
  3980 ;;		line 62 in file "mcc_generated_files/tmr2.c"
  3981 ;; Parameters:    Size  Location     Type
  3982 ;;		None
  3983 ;; Auto vars:     Size  Location     Type
  3984 ;;		None
  3985 ;; Return value:  Size  Location     Type
  3986 ;;                  1    wreg      void 
  3987 ;; Registers used:
  3988 ;;		wreg, status,2
  3989 ;; Tracked objects:
  3990 ;;		On entry : 0/0
  3991 ;;		On exit  : 0/0
  3992 ;;		Unchanged: 0/0
  3993 ;; Data sizes:     COMMON   BANK0   BANK1   BANK2   BANK3   BANK4   BANK5   BANK6   BANK7   BANK8   BANK9  BANK10  BANK1
      +1  BANK12
  3994 ;;      Params:         0       0       0       0       0       0       0       0       0       0       0       0       
      +0       0
  3995 ;;      Locals:         0       0       0       0       0       0       0       0       0       0       0       0       
      +0       0
  3996 ;;      Temps:          0       0       0       0       0       0       0       0       0       0       0       0       
      +0       0
  3997 ;;      Totals:         0       0       0       0       0       0       0       0       0       0       0       0       
      +0       0
  3998 ;;Total ram usage:        0 bytes
  3999 ;; Hardware stack levels used: 1
  4000 ;; Hardware stack levels required when called: 6
  4001 ;; This function calls:
  4002 ;;		Nothing
  4003 ;; This function is called by:
  4004 ;;		_SYSTEM_Initialize
  4005 ;; This function uses a non-reentrant model
  4006 ;;
  4007                           
  4008                           
  4009                           ;psect for function _TMR2_Initialize
  4010  06F7                     _TMR2_Initialize:
  4011  06F7                     l3928:	
  4012                           ;incstack = 0
  4013                           ; Regs used in _TMR2_Initialize: [wreg+status,2]
  4014                           
  4015                           
  4016                           ;mcc_generated_files/tmr2.c: 67:     PR2 = 0x27;
  4017  06F7  3027               	movlw	39
  4018  06F8  0020               	movlb	0	; select bank0
  4019  06F9  009B               	movwf	27	;volatile
  4020  06FA                     l3930:
  4021                           
  4022                           ;mcc_generated_files/tmr2.c: 70:     TMR2 = 0x00;
  4023  06FA  019A               	clrf	26	;volatile
  4024  06FB                     l3932:
  4025                           
  4026                           ;mcc_generated_files/tmr2.c: 73:     PIR1bits.TMR2IF = 0;
  4027  06FB  1091               	bcf	17,1	;volatile
  4028  06FC                     l3934:
  4029                           
  4030                           ;mcc_generated_files/tmr2.c: 76:     T2CON = 0x07;
  4031  06FC  3007               	movlw	7
  4032  06FD  009C               	movwf	28	;volatile
  4033  06FE                     l325:
  4034  06FE  0008               	return
  4035  06FF                     __end_of_TMR2_Initialize:
  4036                           
  4037                           	psect	text6
  4038  06D2                     __ptext6:	
  4039 ;; *************** function _PWM4_Initialize *****************
  4040 ;; Defined at:
  4041 ;;		line 64 in file "mcc_generated_files/pwm4.c"
  4042 ;; Parameters:    Size  Location     Type
  4043 ;;		None
  4044 ;; Auto vars:     Size  Location     Type
  4045 ;;		None
  4046 ;; Return value:  Size  Location     Type
  4047 ;;                  1    wreg      void 
  4048 ;; Registers used:
  4049 ;;		wreg, status,2, status,0
  4050 ;; Tracked objects:
  4051 ;;		On entry : 0/0
  4052 ;;		On exit  : 0/0
  4053 ;;		Unchanged: 0/0
  4054 ;; Data sizes:     COMMON   BANK0   BANK1   BANK2   BANK3   BANK4   BANK5   BANK6   BANK7   BANK8   BANK9  BANK10  BANK1
      +1  BANK12
  4055 ;;      Params:         0       0       0       0       0       0       0       0       0       0       0       0       
      +0       0
  4056 ;;      Locals:         0       0       0       0       0       0       0       0       0       0       0       0       
      +0       0
  4057 ;;      Temps:          0       0       0       0       0       0       0       0       0       0       0       0       
      +0       0
  4058 ;;      Totals:         0       0       0       0       0       0       0       0       0       0       0       0       
      +0       0
  4059 ;;Total ram usage:        0 bytes
  4060 ;; Hardware stack levels used: 1
  4061 ;; Hardware stack levels required when called: 6
  4062 ;; This function calls:
  4063 ;;		Nothing
  4064 ;; This function is called by:
  4065 ;;		_SYSTEM_Initialize
  4066 ;; This function uses a non-reentrant model
  4067 ;;
  4068                           
  4069                           
  4070                           ;psect for function _PWM4_Initialize
  4071  06D2                     _PWM4_Initialize:
  4072  06D2                     l3922:	
  4073                           ;incstack = 0
  4074                           ; Regs used in _PWM4_Initialize: [wreg+status,2+status,0]
  4075                           
  4076                           
  4077                           ;mcc_generated_files/pwm4.c: 69:  CCP4CON = 0x3C;
  4078  06D2  303C               	movlw	60
  4079  06D3  0026               	movlb	6	; select bank6
  4080  06D4  009A               	movwf	26	;volatile
  4081                           
  4082                           ;mcc_generated_files/pwm4.c: 72:  CCPR4L = 0x13;
  4083  06D5  3013               	movlw	19
  4084  06D6  0098               	movwf	24	;volatile
  4085  06D7                     l3924:
  4086                           
  4087                           ;mcc_generated_files/pwm4.c: 75:  CCPR4H = 0x00;
  4088  06D7  0199               	clrf	25	;volatile
  4089  06D8                     l3926:
  4090                           
  4091                           ;mcc_generated_files/pwm4.c: 78:  CCPTMRSbits.C4TSEL = 0x0;
  4092  06D8  303F               	movlw	-193
  4093  06D9  0025               	movlb	5	; select bank5
  4094  06DA  059E               	andwf	30,f	;volatile
  4095  06DB                     l355:
  4096  06DB  0008               	return
  4097  06DC                     __end_of_PWM4_Initialize:
  4098                           
  4099                           	psect	text7
  4100  03B3                     __ptext7:	
  4101 ;; *************** function _PIN_MANAGER_Initialize *****************
  4102 ;; Defined at:
  4103 ;;		line 57 in file "mcc_generated_files/pin_manager.c"
  4104 ;; Parameters:    Size  Location     Type
  4105 ;;		None
  4106 ;; Auto vars:     Size  Location     Type
  4107 ;;		None
  4108 ;; Return value:  Size  Location     Type
  4109 ;;                  1    wreg      void 
  4110 ;; Registers used:
  4111 ;;		wreg, status,2, status,0, pclath, cstack
  4112 ;; Tracked objects:
  4113 ;;		On entry : 0/0
  4114 ;;		On exit  : 0/0
  4115 ;;		Unchanged: 0/0
  4116 ;; Data sizes:     COMMON   BANK0   BANK1   BANK2   BANK3   BANK4   BANK5   BANK6   BANK7   BANK8   BANK9  BANK10  BANK1
      +1  BANK12
  4117 ;;      Params:         0       0       0       0       0       0       0       0       0       0       0       0       
      +0       0
  4118 ;;      Locals:         0       0       0       0       0       0       0       0       0       0       0       0       
      +0       0
  4119 ;;      Temps:          0       0       0       0       0       0       0       0       0       0       0       0       
      +0       0
  4120 ;;      Totals:         0       0       0       0       0       0       0       0       0       0       0       0       
      +0       0
  4121 ;;Total ram usage:        0 bytes
  4122 ;; Hardware stack levels used: 1
  4123 ;; Hardware stack levels required when called: 7
  4124 ;; This function calls:
  4125 ;;		_IOCBF7_SetInterruptHandler
  4126 ;; This function is called by:
  4127 ;;		_SYSTEM_Initialize
  4128 ;; This function uses a non-reentrant model
  4129 ;;
  4130                           
  4131                           
  4132                           ;psect for function _PIN_MANAGER_Initialize
  4133  03B3                     _PIN_MANAGER_Initialize:
  4134  03B3                     l3880:	
  4135                           ;incstack = 0
  4136                           ; Regs used in _PIN_MANAGER_Initialize: [wreg+status,2+status,0+pclath+cstack]
  4137                           
  4138                           
  4139                           ;mcc_generated_files/pin_manager.c: 62:     LATA = 0x00;
  4140  03B3  0022               	movlb	2	; select bank2
  4141  03B4  018C               	clrf	12	;volatile
  4142  03B5                     l3882:
  4143                           
  4144                           ;mcc_generated_files/pin_manager.c: 63:     LATB = 0x50;
  4145  03B5  3050               	movlw	80
  4146  03B6  008D               	movwf	13	;volatile
  4147  03B7                     l3884:
  4148                           
  4149                           ;mcc_generated_files/pin_manager.c: 64:     LATC = 0x00;
  4150  03B7  018E               	clrf	14	;volatile
  4151                           
  4152                           ;mcc_generated_files/pin_manager.c: 69:     TRISA = 0x3F;
  4153  03B8  303F               	movlw	63
  4154  03B9  0021               	movlb	1	; select bank1
  4155  03BA  008C               	movwf	12	;volatile
  4156                           
  4157                           ;mcc_generated_files/pin_manager.c: 70:     TRISB = 0xF0;
  4158  03BB  30F0               	movlw	240
  4159  03BC  008D               	movwf	13	;volatile
  4160                           
  4161                           ;mcc_generated_files/pin_manager.c: 71:     TRISC = 0x97;
  4162  03BD  3097               	movlw	151
  4163  03BE  008E               	movwf	14	;volatile
  4164                           
  4165                           ;mcc_generated_files/pin_manager.c: 76:     ANSELC = 0x87;
  4166  03BF  3087               	movlw	135
  4167  03C0  0023               	movlb	3	; select bank3
  4168  03C1  008E               	movwf	14	;volatile
  4169                           
  4170                           ;mcc_generated_files/pin_manager.c: 77:     ANSELB = 0x20;
  4171  03C2  3020               	movlw	32
  4172  03C3  008D               	movwf	13	;volatile
  4173                           
  4174                           ;mcc_generated_files/pin_manager.c: 78:     ANSELA = 0x13;
  4175  03C4  3013               	movlw	19
  4176  03C5  008C               	movwf	12	;volatile
  4177                           
  4178                           ;mcc_generated_files/pin_manager.c: 83:     WPUB = 0x80;
  4179  03C6  3080               	movlw	128
  4180  03C7  0024               	movlb	4	; select bank4
  4181  03C8  008D               	movwf	13	;volatile
  4182                           
  4183                           ;mcc_generated_files/pin_manager.c: 84:     WPUA = 0x04;
  4184  03C9  3004               	movlw	4
  4185  03CA  008C               	movwf	12	;volatile
  4186  03CB                     l3886:
  4187                           
  4188                           ;mcc_generated_files/pin_manager.c: 85:     WPUC = 0x00;
  4189  03CB  018E               	clrf	14	;volatile
  4190  03CC                     l3888:
  4191                           
  4192                           ;mcc_generated_files/pin_manager.c: 86:     OPTION_REGbits.nWPUEN = 0;
  4193  03CC  0021               	movlb	1	; select bank1
  4194  03CD  1395               	bcf	21,7	;volatile
  4195  03CE                     l3890:
  4196                           
  4197                           ;mcc_generated_files/pin_manager.c: 92:     APFCON0 = 0x04;
  4198  03CE  3004               	movlw	4
  4199  03CF  0022               	movlb	2	; select bank2
  4200  03D0  009D               	movwf	29	;volatile
  4201                           
  4202                           ;mcc_generated_files/pin_manager.c: 93:     APFCON1 = 0x00;
  4203  03D1  019E               	clrf	30	;volatile
  4204  03D2                     l3892:
  4205                           
  4206                           ;mcc_generated_files/pin_manager.c: 99:     IOCBFbits.IOCBF7 = 0;
  4207  03D2  0027               	movlb	7	; select bank7
  4208  03D3  1396               	bcf	22,7	;volatile
  4209  03D4                     l3894:
  4210                           
  4211                           ;mcc_generated_files/pin_manager.c: 101:     IOCBNbits.IOCBN7 = 1;
  4212  03D4  1795               	bsf	21,7	;volatile
  4213  03D5                     l3896:
  4214                           
  4215                           ;mcc_generated_files/pin_manager.c: 103:     IOCBPbits.IOCBP7 = 0;
  4216  03D5  1394               	bcf	20,7	;volatile
  4217  03D6                     l3898:
  4218                           
  4219                           ;mcc_generated_files/pin_manager.c: 108:     IOCBF7_SetInterruptHandler(IOCBF7_DefaultIn
      +                          terruptHandler);
  4220  03D6  30A6               	movlw	low _IOCBF7_DefaultInterruptHandler
  4221  03D7  0020               	movlb	0	; select bank0
  4222  03D8  00C1               	movwf	IOCBF7_SetInterruptHandler@InterruptHandler
  4223  03D9  3007               	movlw	high _IOCBF7_DefaultInterruptHandler
  4224  03DA  00C2               	movwf	IOCBF7_SetInterruptHandler@InterruptHandler+1
  4225  03DB  3187  271A  3183   	fcall	_IOCBF7_SetInterruptHandler
  4226  03DE                     l3900:
  4227                           
  4228                           ;mcc_generated_files/pin_manager.c: 111:     INTCONbits.IOCIE = 1;
  4229  03DE  158B               	bsf	11,3	;volatile
  4230  03DF                     l407:
  4231  03DF  0008               	return
  4232  03E0                     __end_of_PIN_MANAGER_Initialize:
  4233                           
  4234                           	psect	text8
  4235  071A                     __ptext8:	
  4236 ;; *************** function _IOCBF7_SetInterruptHandler *****************
  4237 ;; Defined at:
  4238 ;;		line 142 in file "mcc_generated_files/pin_manager.c"
  4239 ;; Parameters:    Size  Location     Type
  4240 ;;  InterruptHan    2    0[BANK0 ] PTR FTN()void 
  4241 ;;		 -> ButtonInterrupt(1), IOCBF7_DefaultInterruptHandler(1), 
  4242 ;; Auto vars:     Size  Location     Type
  4243 ;;		None
  4244 ;; Return value:  Size  Location     Type
  4245 ;;                  1    wreg      void 
  4246 ;; Registers used:
  4247 ;;		wreg
  4248 ;; Tracked objects:
  4249 ;;		On entry : 0/0
  4250 ;;		On exit  : 0/0
  4251 ;;		Unchanged: 0/0
  4252 ;; Data sizes:     COMMON   BANK0   BANK1   BANK2   BANK3   BANK4   BANK5   BANK6   BANK7   BANK8   BANK9  BANK10  BANK1
      +1  BANK12
  4253 ;;      Params:         0       2       0       0       0       0       0       0       0       0       0       0       
      +0       0
  4254 ;;      Locals:         0       0       0       0       0       0       0       0       0       0       0       0       
      +0       0
  4255 ;;      Temps:          0       0       0       0       0       0       0       0       0       0       0       0       
      +0       0
  4256 ;;      Totals:         0       2       0       0       0       0       0       0       0       0       0       0       
      +0       0
  4257 ;;Total ram usage:        2 bytes
  4258 ;; Hardware stack levels used: 1
  4259 ;; Hardware stack levels required when called: 6
  4260 ;; This function calls:
  4261 ;;		Nothing
  4262 ;; This function is called by:
  4263 ;;		_PIN_MANAGER_Initialize
  4264 ;;		_main
  4265 ;; This function uses a non-reentrant model
  4266 ;;
  4267                           
  4268                           
  4269                           ;psect for function _IOCBF7_SetInterruptHandler
  4270  071A                     _IOCBF7_SetInterruptHandler:
  4271  071A                     l3746:	
  4272                           ;incstack = 0
  4273                           ; Regs used in _IOCBF7_SetInterruptHandler: [wreg]
  4274                           
  4275                           
  4276                           ;mcc_generated_files/pin_manager.c: 143:     IOCBF7_InterruptHandler = InterruptHandler;
  4277  071A  0020               	movlb	0	; select bank0
  4278  071B  0842               	movf	IOCBF7_SetInterruptHandler@InterruptHandler+1,w
  4279  071C  00F8               	movwf	_IOCBF7_InterruptHandler+1
  4280  071D  0841               	movf	IOCBF7_SetInterruptHandler@InterruptHandler,w
  4281  071E  00F7               	movwf	_IOCBF7_InterruptHandler
  4282  071F                     l418:
  4283  071F  0008               	return
  4284  0720                     __end_of_IOCBF7_SetInterruptHandler:
  4285                           
  4286                           	psect	text9
  4287  06C6                     __ptext9:	
  4288 ;; *************** function _OSCILLATOR_Initialize *****************
  4289 ;; Defined at:
  4290 ;;		line 65 in file "mcc_generated_files/mcc.c"
  4291 ;; Parameters:    Size  Location     Type
  4292 ;;		None
  4293 ;; Auto vars:     Size  Location     Type
  4294 ;;		None
  4295 ;; Return value:  Size  Location     Type
  4296 ;;                  1    wreg      void 
  4297 ;; Registers used:
  4298 ;;		wreg, status,2
  4299 ;; Tracked objects:
  4300 ;;		On entry : 0/0
  4301 ;;		On exit  : 0/0
  4302 ;;		Unchanged: 0/0
  4303 ;; Data sizes:     COMMON   BANK0   BANK1   BANK2   BANK3   BANK4   BANK5   BANK6   BANK7   BANK8   BANK9  BANK10  BANK1
      +1  BANK12
  4304 ;;      Params:         0       0       0       0       0       0       0       0       0       0       0       0       
      +0       0
  4305 ;;      Locals:         0       0       0       0       0       0       0       0       0       0       0       0       
      +0       0
  4306 ;;      Temps:          0       0       0       0       0       0       0       0       0       0       0       0       
      +0       0
  4307 ;;      Totals:         0       0       0       0       0       0       0       0       0       0       0       0       
      +0       0
  4308 ;;Total ram usage:        0 bytes
  4309 ;; Hardware stack levels used: 1
  4310 ;; Hardware stack levels required when called: 6
  4311 ;; This function calls:
  4312 ;;		Nothing
  4313 ;; This function is called by:
  4314 ;;		_SYSTEM_Initialize
  4315 ;; This function uses a non-reentrant model
  4316 ;;
  4317                           
  4318                           
  4319                           ;psect for function _OSCILLATOR_Initialize
  4320  06C6                     _OSCILLATOR_Initialize:
  4321  06C6                     l3902:	
  4322                           ;incstack = 0
  4323                           ; Regs used in _OSCILLATOR_Initialize: [wreg+status,2]
  4324                           
  4325                           
  4326                           ;mcc_generated_files/mcc.c: 68:     OSCCON = 0x70;
  4327  06C6  3070               	movlw	112
  4328  06C7  0021               	movlb	1	; select bank1
  4329  06C8  0099               	movwf	25	;volatile
  4330  06C9                     l3904:
  4331                           
  4332                           ;mcc_generated_files/mcc.c: 70:     OSCTUNE = 0x00;
  4333  06C9  0198               	clrf	24	;volatile
  4334  06CA                     l3906:
  4335                           
  4336                           ;mcc_generated_files/mcc.c: 72:     BORCON = 0x00;
  4337  06CA  0022               	movlb	2	; select bank2
  4338  06CB  0196               	clrf	22	;volatile
  4339  06CC                     l306:	
  4340                           ;mcc_generated_files/mcc.c: 75:     {;mcc_generated_files/mcc.c: 76:     }
  4341                           
  4342                           
  4343                           ;mcc_generated_files/mcc.c: 74:     while(PLLR == 0)
  4344  06CC  0021               	movlb	1	; select bank1
  4345  06CD  1F1A               	btfss	26,6	;volatile
  4346  06CE  2ED0               	goto	u1371
  4347  06CF  2ED1               	goto	u1370
  4348  06D0                     u1371:
  4349  06D0  2ECC               	goto	l306
  4350  06D1                     u1370:
  4351  06D1                     l309:
  4352  06D1  0008               	return
  4353  06D2                     __end_of_OSCILLATOR_Initialize:
  4354                           
  4355                           	psect	text10
  4356  06DC                     __ptext10:	
  4357 ;; *************** function _I2C1_Initialize *****************
  4358 ;; Defined at:
  4359 ;;		line 167 in file "mcc_generated_files/i2c1_master.c"
  4360 ;; Parameters:    Size  Location     Type
  4361 ;;		None
  4362 ;; Auto vars:     Size  Location     Type
  4363 ;;		None
  4364 ;; Return value:  Size  Location     Type
  4365 ;;                  1    wreg      void 
  4366 ;; Registers used:
  4367 ;;		wreg, status,2
  4368 ;; Tracked objects:
  4369 ;;		On entry : 0/0
  4370 ;;		On exit  : 0/0
  4371 ;;		Unchanged: 0/0
  4372 ;; Data sizes:     COMMON   BANK0   BANK1   BANK2   BANK3   BANK4   BANK5   BANK6   BANK7   BANK8   BANK9  BANK10  BANK1
      +1  BANK12
  4373 ;;      Params:         0       0       0       0       0       0       0       0       0       0       0       0       
      +0       0
  4374 ;;      Locals:         0       0       0       0       0       0       0       0       0       0       0       0       
      +0       0
  4375 ;;      Temps:          0       0       0       0       0       0       0       0       0       0       0       0       
      +0       0
  4376 ;;      Totals:         0       0       0       0       0       0       0       0       0       0       0       0       
      +0       0
  4377 ;;Total ram usage:        0 bytes
  4378 ;; Hardware stack levels used: 1
  4379 ;; Hardware stack levels required when called: 6
  4380 ;; This function calls:
  4381 ;;		Nothing
  4382 ;; This function is called by:
  4383 ;;		_SYSTEM_Initialize
  4384 ;; This function uses a non-reentrant model
  4385 ;;
  4386                           
  4387                           
  4388                           ;psect for function _I2C1_Initialize
  4389  06DC                     _I2C1_Initialize:
  4390  06DC                     l3872:	
  4391                           ;incstack = 0
  4392                           ; Regs used in _I2C1_Initialize: [wreg+status,2]
  4393                           
  4394                           
  4395                           ;mcc_generated_files/i2c1_master.c: 169:     SSP1STAT = 0x00;
  4396  06DC  0024               	movlb	4	; select bank4
  4397  06DD  0194               	clrf	20	;volatile
  4398  06DE                     l3874:
  4399                           
  4400                           ;mcc_generated_files/i2c1_master.c: 170:     SSP1CON1 = 0x08;
  4401  06DE  3008               	movlw	8
  4402  06DF  0095               	movwf	21	;volatile
  4403  06E0                     l3876:
  4404                           
  4405                           ;mcc_generated_files/i2c1_master.c: 171:     SSP1CON2 = 0x00;
  4406  06E0  0196               	clrf	22	;volatile
  4407                           
  4408                           ;mcc_generated_files/i2c1_master.c: 172:     SSP1ADD = 0x4F;
  4409  06E1  304F               	movlw	79
  4410  06E2  0092               	movwf	18	;volatile
  4411  06E3                     l3878:
  4412                           
  4413                           ;mcc_generated_files/i2c1_master.c: 173:     SSP1CON1bits.SSPEN = 0;
  4414  06E3  1295               	bcf	21,5	;volatile
  4415  06E4                     l528:
  4416  06E4  0008               	return
  4417  06E5                     __end_of_I2C1_Initialize:
  4418                           
  4419                           	psect	text11
  4420  0685                     __ptext11:	
  4421 ;; *************** function _EXT_INT_Initialize *****************
  4422 ;; Defined at:
  4423 ;;		line 59 in file "mcc_generated_files/ext_int.c"
  4424 ;; Parameters:    Size  Location     Type
  4425 ;;		None
  4426 ;; Auto vars:     Size  Location     Type
  4427 ;;		None
  4428 ;; Return value:  Size  Location     Type
  4429 ;;                  1    wreg      void 
  4430 ;; Registers used:
  4431 ;;		wreg, status,2, status,0, pclath, cstack
  4432 ;; Tracked objects:
  4433 ;;		On entry : 0/0
  4434 ;;		On exit  : 0/0
  4435 ;;		Unchanged: 0/0
  4436 ;; Data sizes:     COMMON   BANK0   BANK1   BANK2   BANK3   BANK4   BANK5   BANK6   BANK7   BANK8   BANK9  BANK10  BANK1
      +1  BANK12
  4437 ;;      Params:         0       0       0       0       0       0       0       0       0       0       0       0       
      +0       0
  4438 ;;      Locals:         0       0       0       0       0       0       0       0       0       0       0       0       
      +0       0
  4439 ;;      Temps:          0       0       0       0       0       0       0       0       0       0       0       0       
      +0       0
  4440 ;;      Totals:         0       0       0       0       0       0       0       0       0       0       0       0       
      +0       0
  4441 ;;Total ram usage:        0 bytes
  4442 ;; Hardware stack levels used: 1
  4443 ;; Hardware stack levels required when called: 7
  4444 ;; This function calls:
  4445 ;;		_INT_SetInterruptHandler
  4446 ;; This function is called by:
  4447 ;;		_SYSTEM_Initialize
  4448 ;; This function uses a non-reentrant model
  4449 ;;
  4450                           
  4451                           
  4452                           ;psect for function _EXT_INT_Initialize
  4453  0685                     _EXT_INT_Initialize:
  4454  0685                     l3866:	
  4455                           ;incstack = 0
  4456                           ; Regs used in _EXT_INT_Initialize: [wreg+status,2+status,0+pclath+cstack]
  4457                           
  4458                           
  4459                           ;mcc_generated_files/ext_int.c: 64:     (INTCONbits.INTF = 0);
  4460  0685  108B               	bcf	11,1	;volatile
  4461                           
  4462                           ;mcc_generated_files/ext_int.c: 65:     (OPTION_REGbits.INTEDG = 0);
  4463  0686  0021               	movlb	1	; select bank1
  4464  0687  1315               	bcf	21,6	;volatile
  4465  0688                     l3868:
  4466                           
  4467                           ;mcc_generated_files/ext_int.c: 67:     INT_SetInterruptHandler(INT_DefaultInterruptHand
      +                          ler);
  4468  0688  30A7               	movlw	low _INT_DefaultInterruptHandler
  4469  0689  0020               	movlb	0	; select bank0
  4470  068A  00C1               	movwf	INT_SetInterruptHandler@InterruptHandler
  4471  068B  3007               	movlw	high _INT_DefaultInterruptHandler
  4472  068C  00C2               	movwf	INT_SetInterruptHandler@InterruptHandler+1
  4473  068D  3187  2720  3186   	fcall	_INT_SetInterruptHandler
  4474  0690                     l3870:
  4475                           
  4476                           ;mcc_generated_files/ext_int.c: 68:     (INTCONbits.INTE = 1);
  4477  0690  160B               	bsf	11,4	;volatile
  4478  0691                     l270:
  4479  0691  0008               	return
  4480  0692                     __end_of_EXT_INT_Initialize:
  4481                           
  4482                           	psect	text12
  4483  0720                     __ptext12:	
  4484 ;; *************** function _INT_SetInterruptHandler *****************
  4485 ;; Defined at:
  4486 ;;		line 50 in file "mcc_generated_files/ext_int.c"
  4487 ;; Parameters:    Size  Location     Type
  4488 ;;  InterruptHan    2    0[BANK0 ] PTR FTN()void 
  4489 ;;		 -> WakeUpInterrupt(1), INT_DefaultInterruptHandler(1), 
  4490 ;; Auto vars:     Size  Location     Type
  4491 ;;		None
  4492 ;; Return value:  Size  Location     Type
  4493 ;;                  1    wreg      void 
  4494 ;; Registers used:
  4495 ;;		wreg
  4496 ;; Tracked objects:
  4497 ;;		On entry : 0/0
  4498 ;;		On exit  : 0/0
  4499 ;;		Unchanged: 0/0
  4500 ;; Data sizes:     COMMON   BANK0   BANK1   BANK2   BANK3   BANK4   BANK5   BANK6   BANK7   BANK8   BANK9  BANK10  BANK1
      +1  BANK12
  4501 ;;      Params:         0       2       0       0       0       0       0       0       0       0       0       0       
      +0       0
  4502 ;;      Locals:         0       0       0       0       0       0       0       0       0       0       0       0       
      +0       0
  4503 ;;      Temps:          0       0       0       0       0       0       0       0       0       0       0       0       
      +0       0
  4504 ;;      Totals:         0       2       0       0       0       0       0       0       0       0       0       0       
      +0       0
  4505 ;;Total ram usage:        2 bytes
  4506 ;; Hardware stack levels used: 1
  4507 ;; Hardware stack levels required when called: 6
  4508 ;; This function calls:
  4509 ;;		Nothing
  4510 ;; This function is called by:
  4511 ;;		_EXT_INT_Initialize
  4512 ;;		_main
  4513 ;; This function uses a non-reentrant model
  4514 ;;
  4515                           
  4516                           
  4517                           ;psect for function _INT_SetInterruptHandler
  4518  0720                     _INT_SetInterruptHandler:
  4519  0720                     l3744:	
  4520                           ;incstack = 0
  4521                           ; Regs used in _INT_SetInterruptHandler: [wreg]
  4522                           
  4523                           
  4524                           ;mcc_generated_files/ext_int.c: 51:     INT_InterruptHandler = InterruptHandler;
  4525  0720  0020               	movlb	0	; select bank0
  4526  0721  0842               	movf	INT_SetInterruptHandler@InterruptHandler+1,w
  4527  0722  00C0               	movwf	_INT_InterruptHandler+1
  4528  0723  0841               	movf	INT_SetInterruptHandler@InterruptHandler,w
  4529  0724  00BF               	movwf	_INT_InterruptHandler
  4530  0725                     l264:
  4531  0725  0008               	return
  4532  0726                     __end_of_INT_SetInterruptHandler:
  4533                           
  4534                           	psect	text13
  4535  063F                     __ptext13:	
  4536 ;; *************** function _EPWM2_Initialize *****************
  4537 ;; Defined at:
  4538 ;;		line 64 in file "mcc_generated_files/epwm2.c"
  4539 ;; Parameters:    Size  Location     Type
  4540 ;;		None
  4541 ;; Auto vars:     Size  Location     Type
  4542 ;;		None
  4543 ;; Return value:  Size  Location     Type
  4544 ;;                  1    wreg      void 
  4545 ;; Registers used:
  4546 ;;		wreg, status,2, status,0
  4547 ;; Tracked objects:
  4548 ;;		On entry : 0/0
  4549 ;;		On exit  : 0/0
  4550 ;;		Unchanged: 0/0
  4551 ;; Data sizes:     COMMON   BANK0   BANK1   BANK2   BANK3   BANK4   BANK5   BANK6   BANK7   BANK8   BANK9  BANK10  BANK1
      +1  BANK12
  4552 ;;      Params:         0       0       0       0       0       0       0       0       0       0       0       0       
      +0       0
  4553 ;;      Locals:         0       0       0       0       0       0       0       0       0       0       0       0       
      +0       0
  4554 ;;      Temps:          0       0       0       0       0       0       0       0       0       0       0       0       
      +0       0
  4555 ;;      Totals:         0       0       0       0       0       0       0       0       0       0       0       0       
      +0       0
  4556 ;;Total ram usage:        0 bytes
  4557 ;; Hardware stack levels used: 1
  4558 ;; Hardware stack levels required when called: 6
  4559 ;; This function calls:
  4560 ;;		Nothing
  4561 ;; This function is called by:
  4562 ;;		_SYSTEM_Initialize
  4563 ;; This function uses a non-reentrant model
  4564 ;;
  4565                           
  4566                           
  4567                           ;psect for function _EPWM2_Initialize
  4568  063F                     _EPWM2_Initialize:
  4569  063F                     l3842:	
  4570                           ;incstack = 0
  4571                           ; Regs used in _EPWM2_Initialize: [wreg+status,2+status,0]
  4572                           
  4573                           
  4574                           ;mcc_generated_files/epwm2.c: 69:  CCP2CON = 0x3C;
  4575  063F  303C               	movlw	60
  4576  0640  0025               	movlb	5	; select bank5
  4577  0641  009A               	movwf	26	;volatile
  4578  0642                     l3844:
  4579                           
  4580                           ;mcc_generated_files/epwm2.c: 72:  CCP2AS = 0x00;
  4581  0642  019C               	clrf	28	;volatile
  4582  0643                     l3846:
  4583                           
  4584                           ;mcc_generated_files/epwm2.c: 75:  PWM2CON = 0x80;
  4585  0643  3080               	movlw	128
  4586  0644  009B               	movwf	27	;volatile
  4587  0645                     l3848:
  4588                           
  4589                           ;mcc_generated_files/epwm2.c: 78:  PSTR2CON = 0x01;
  4590  0645  3001               	movlw	1
  4591  0646  009D               	movwf	29	;volatile
  4592  0647                     l3850:
  4593                           
  4594                           ;mcc_generated_files/epwm2.c: 81:  CCPR2H = 0x00;
  4595  0647  0199               	clrf	25	;volatile
  4596                           
  4597                           ;mcc_generated_files/epwm2.c: 84:  CCPR2L = 0x13;
  4598  0648  3013               	movlw	19
  4599  0649  0098               	movwf	24	;volatile
  4600  064A                     l3852:
  4601                           
  4602                           ;mcc_generated_files/epwm2.c: 87:  CCPTMRSbits.C2TSEL = 0x0;
  4603  064A  30F3               	movlw	-13
  4604  064B  059E               	andwf	30,f	;volatile
  4605  064C                     l198:
  4606  064C  0008               	return
  4607  064D                     __end_of_EPWM2_Initialize:
  4608                           
  4609                           	psect	text14
  4610  064D                     __ptext14:	
  4611 ;; *************** function _EPWM1_Initialize *****************
  4612 ;; Defined at:
  4613 ;;		line 64 in file "mcc_generated_files/epwm1.c"
  4614 ;; Parameters:    Size  Location     Type
  4615 ;;		None
  4616 ;; Auto vars:     Size  Location     Type
  4617 ;;		None
  4618 ;; Return value:  Size  Location     Type
  4619 ;;                  1    wreg      void 
  4620 ;; Registers used:
  4621 ;;		wreg, status,2, status,0
  4622 ;; Tracked objects:
  4623 ;;		On entry : 0/0
  4624 ;;		On exit  : 0/0
  4625 ;;		Unchanged: 0/0
  4626 ;; Data sizes:     COMMON   BANK0   BANK1   BANK2   BANK3   BANK4   BANK5   BANK6   BANK7   BANK8   BANK9  BANK10  BANK1
      +1  BANK12
  4627 ;;      Params:         0       0       0       0       0       0       0       0       0       0       0       0       
      +0       0
  4628 ;;      Locals:         0       0       0       0       0       0       0       0       0       0       0       0       
      +0       0
  4629 ;;      Temps:          0       0       0       0       0       0       0       0       0       0       0       0       
      +0       0
  4630 ;;      Totals:         0       0       0       0       0       0       0       0       0       0       0       0       
      +0       0
  4631 ;;Total ram usage:        0 bytes
  4632 ;; Hardware stack levels used: 1
  4633 ;; Hardware stack levels required when called: 6
  4634 ;; This function calls:
  4635 ;;		Nothing
  4636 ;; This function is called by:
  4637 ;;		_SYSTEM_Initialize
  4638 ;; This function uses a non-reentrant model
  4639 ;;
  4640                           
  4641                           
  4642                           ;psect for function _EPWM1_Initialize
  4643  064D                     _EPWM1_Initialize:
  4644  064D                     l3854:	
  4645                           ;incstack = 0
  4646                           ; Regs used in _EPWM1_Initialize: [wreg+status,2+status,0]
  4647                           
  4648                           
  4649                           ;mcc_generated_files/epwm1.c: 69:  CCP1CON = 0x3C;
  4650  064D  303C               	movlw	60
  4651  064E  0025               	movlb	5	; select bank5
  4652  064F  0093               	movwf	19	;volatile
  4653  0650                     l3856:
  4654                           
  4655                           ;mcc_generated_files/epwm1.c: 72:  ECCP1AS = 0x00;
  4656  0650  0195               	clrf	21	;volatile
  4657  0651                     l3858:
  4658                           
  4659                           ;mcc_generated_files/epwm1.c: 75:  PWM1CON = 0x80;
  4660  0651  3080               	movlw	128
  4661  0652  0094               	movwf	20	;volatile
  4662  0653                     l3860:
  4663                           
  4664                           ;mcc_generated_files/epwm1.c: 78:  PSTR1CON = 0x01;
  4665  0653  3001               	movlw	1
  4666  0654  0096               	movwf	22	;volatile
  4667  0655                     l3862:
  4668                           
  4669                           ;mcc_generated_files/epwm1.c: 81:  CCPR1H = 0x00;
  4670  0655  0192               	clrf	18	;volatile
  4671                           
  4672                           ;mcc_generated_files/epwm1.c: 84:  CCPR1L = 0x13;
  4673  0656  3013               	movlw	19
  4674  0657  0091               	movwf	17	;volatile
  4675  0658                     l3864:
  4676                           
  4677                           ;mcc_generated_files/epwm1.c: 87:  CCPTMRSbits.C1TSEL = 0x0;
  4678  0658  30FC               	movlw	-4
  4679  0659  059E               	andwf	30,f	;volatile
  4680  065A                     l218:
  4681  065A  0008               	return
  4682  065B                     __end_of_EPWM1_Initialize:
  4683                           
  4684                           	psect	text15
  4685  04BD                     __ptext15:	
  4686 ;; *************** function _PWM4_LoadDutyValue *****************
  4687 ;; Defined at:
  4688 ;;		line 82 in file "mcc_generated_files/pwm4.c"
  4689 ;; Parameters:    Size  Location     Type
  4690 ;;  dutyValue       2    0[BANK0 ] unsigned short 
  4691 ;; Auto vars:     Size  Location     Type
  4692 ;;		None
  4693 ;; Return value:  Size  Location     Type
  4694 ;;                  1    wreg      void 
  4695 ;; Registers used:
  4696 ;;		wreg, status,2, status,0
  4697 ;; Tracked objects:
  4698 ;;		On entry : 0/0
  4699 ;;		On exit  : 0/0
  4700 ;;		Unchanged: 0/0
  4701 ;; Data sizes:     COMMON   BANK0   BANK1   BANK2   BANK3   BANK4   BANK5   BANK6   BANK7   BANK8   BANK9  BANK10  BANK1
      +1  BANK12
  4702 ;;      Params:         0       2       0       0       0       0       0       0       0       0       0       0       
      +0       0
  4703 ;;      Locals:         0       0       0       0       0       0       0       0       0       0       0       0       
      +0       0
  4704 ;;      Temps:          0       2       0       0       0       0       0       0       0       0       0       0       
      +0       0
  4705 ;;      Totals:         0       4       0       0       0       0       0       0       0       0       0       0       
      +0       0
  4706 ;;Total ram usage:        4 bytes
  4707 ;; Hardware stack levels used: 1
  4708 ;; Hardware stack levels required when called: 6
  4709 ;; This function calls:
  4710 ;;		Nothing
  4711 ;; This function is called by:
  4712 ;;		_main
  4713 ;; This function uses a non-reentrant model
  4714 ;;
  4715                           
  4716                           
  4717                           ;psect for function _PWM4_LoadDutyValue
  4718  04BD                     _PWM4_LoadDutyValue:
  4719  04BD                     l3208:	
  4720                           ;incstack = 0
  4721                           ; Regs used in _PWM4_LoadDutyValue: [wreg+status,2+status,0]
  4722                           
  4723                           
  4724                           ;mcc_generated_files/pwm4.c: 82: void PWM4_LoadDutyValue(uint16_t dutyValue);mcc_generat
      +                          ed_files/pwm4.c: 83: {;mcc_generated_files/pwm4.c: 85:     CCPR4L = ((dutyValue & 0x03FC
      +                          )>>2);
  4725  04BD  0020               	movlb	0	; select bank0
  4726  04BE  0842               	movf	PWM4_LoadDutyValue@dutyValue+1,w
  4727  04BF  00C4               	movwf	??_PWM4_LoadDutyValue+1
  4728  04C0  0841               	movf	PWM4_LoadDutyValue@dutyValue,w
  4729  04C1  00C3               	movwf	??_PWM4_LoadDutyValue
  4730  04C2  36C4               	lsrf	??_PWM4_LoadDutyValue+1,f
  4731  04C3  0CC3               	rrf	??_PWM4_LoadDutyValue,f
  4732  04C4  36C4               	lsrf	??_PWM4_LoadDutyValue+1,f
  4733  04C5  0CC3               	rrf	??_PWM4_LoadDutyValue,f
  4734  04C6  0843               	movf	??_PWM4_LoadDutyValue,w
  4735  04C7  0026               	movlb	6	; select bank6
  4736  04C8  0098               	movwf	24	;volatile
  4737                           
  4738                           ;mcc_generated_files/pwm4.c: 88:     CCP4CON = ((uint8_t)(CCP4CON & 0xCF) | ((dutyValue 
      +                          & 0x0003)<<4));
  4739  04C9  0020               	movlb	0	; select bank0
  4740  04CA  0841               	movf	PWM4_LoadDutyValue@dutyValue,w
  4741  04CB  3903               	andlw	3
  4742  04CC  00C3               	movwf	??_PWM4_LoadDutyValue
  4743  04CD  3004               	movlw	4
  4744  04CE                     u1025:
  4745  04CE  35C3               	lslf	??_PWM4_LoadDutyValue,f
  4746  04CF  0B89               	decfsz	9,f
  4747  04D0  2CCE               	goto	u1025
  4748  04D1  0026               	movlb	6	; select bank6
  4749  04D2  081A               	movf	26,w	;volatile
  4750  04D3  39CF               	andlw	207
  4751  04D4  0020               	movlb	0	; select bank0
  4752  04D5  0443               	iorwf	??_PWM4_LoadDutyValue,w
  4753  04D6  0026               	movlb	6	; select bank6
  4754  04D7  009A               	movwf	26	;volatile
  4755  04D8                     l358:
  4756  04D8  0008               	return
  4757  04D9                     __end_of_PWM4_LoadDutyValue:
  4758                           
  4759                           	psect	text16
  4760  034E                     __ptext16:	
  4761 ;; *************** function _I2C1_Write1ByteRegister *****************
  4762 ;; Defined at:
  4763 ;;		line 91 in file "mcc_generated_files/examples/i2c1_master_example.c"
  4764 ;; Parameters:    Size  Location     Type
  4765 ;;  address         1    wreg     unsigned char 
  4766 ;;  reg             1   19[BANK0 ] unsigned char 
  4767 ;;  data            1   20[BANK0 ] unsigned char 
  4768 ;; Auto vars:     Size  Location     Type
  4769 ;;  address         1   22[BANK0 ] unsigned char 
  4770 ;; Return value:  Size  Location     Type
  4771 ;;                  1    wreg      void 
  4772 ;; Registers used:
  4773 ;;		wreg, fsr0l, fsr0h, fsr1l, fsr1h, status,2, status,0, pclath, cstack
  4774 ;; Tracked objects:
  4775 ;;		On entry : 0/0
  4776 ;;		On exit  : 0/0
  4777 ;;		Unchanged: 0/0
  4778 ;; Data sizes:     COMMON   BANK0   BANK1   BANK2   BANK3   BANK4   BANK5   BANK6   BANK7   BANK8   BANK9  BANK10  BANK1
      +1  BANK12
  4779 ;;      Params:         0       2       0       0       0       0       0       0       0       0       0       0       
      +0       0
  4780 ;;      Locals:         0       1       0       0       0       0       0       0       0       0       0       0       
      +0       0
  4781 ;;      Temps:          0       1       0       0       0       0       0       0       0       0       0       0       
      +0       0
  4782 ;;      Totals:         0       4       0       0       0       0       0       0       0       0       0       0       
      +0       0
  4783 ;;Total ram usage:        4 bytes
  4784 ;; Hardware stack levels used: 1
  4785 ;; Hardware stack levels required when called: 14
  4786 ;; This function calls:
  4787 ;;		_I2C1_Close
  4788 ;;		_I2C1_MasterWrite
  4789 ;;		_I2C1_Open
  4790 ;;		_I2C1_SetAddressNackCallback
  4791 ;;		_I2C1_SetBuffer
  4792 ;;		_I2C1_SetDataCompleteCallback
  4793 ;; This function is called by:
  4794 ;;		_main
  4795 ;; This function uses a non-reentrant model
  4796 ;;
  4797                           
  4798                           
  4799                           ;psect for function _I2C1_Write1ByteRegister
  4800  034E                     _I2C1_Write1ByteRegister:
  4801                           
  4802                           ;incstack = 0
  4803                           ; Regs used in _I2C1_Write1ByteRegister: [wreg-fsr1h+status,2+status,0+pclath+cstack]
  4804                           ;I2C1_Write1ByteRegister@address stored from wreg
  4805  034E  0020               	movlb	0	; select bank0
  4806  034F  00D7               	movwf	I2C1_Write1ByteRegister@address
  4807  0350                     l3954:
  4808  0350                     l3956:	
  4809                           ;mcc_generated_files/examples/i2c1_master_example.c: 91: void I2C1_Write1ByteRegister(i2
      +                          c1_address_t address, uint8_t reg, uint8_t data);mcc_generated_files/examples/i2c1_maste
      +                          r_example.c: 92: {;mcc_generated_files/examples/i2c1_master_example.c: 93:     while(!I2
      +                          C1_Open(address));
  4810                           
  4811  0350  0020               	movlb	0	; select bank0
  4812  0351  0857               	movf	I2C1_Write1ByteRegister@address,w
  4813  0352  3182  22DB  3183   	fcall	_I2C1_Open
  4814  0355  3A00               	xorlw	0
  4815  0356  1903               	skipnz
  4816  0357  2B59               	goto	u1401
  4817  0358  2B5A               	goto	u1400
  4818  0359                     u1401:
  4819  0359  2B50               	goto	l3956
  4820  035A                     u1400:
  4821  035A                     l3958:
  4822                           
  4823                           ;mcc_generated_files/examples/i2c1_master_example.c: 94:     I2C1_SetDataCompleteCallbac
      +                          k(wr1RegCompleteHandler,&data);
  4824  035A  30E3               	movlw	low _wr1RegCompleteHandler
  4825  035B  0020               	movlb	0	; select bank0
  4826  035C  00C6               	movwf	I2C1_SetDataCompleteCallback@cb
  4827  035D  3005               	movlw	high _wr1RegCompleteHandler
  4828  035E  00C7               	movwf	I2C1_SetDataCompleteCallback@cb+1
  4829  035F  3055               	movlw	(low (I2C1_Write1ByteRegister@data| 0))& (0+255)
  4830  0360  00D6               	movwf	??_I2C1_Write1ByteRegister
  4831  0361  0856               	movf	??_I2C1_Write1ByteRegister,w
  4832  0362  00C8               	movwf	I2C1_SetDataCompleteCallback@ptr
  4833  0363  3186  2669  3183   	fcall	_I2C1_SetDataCompleteCallback
  4834  0366                     l3960:
  4835                           
  4836                           ;mcc_generated_files/examples/i2c1_master_example.c: 95:     I2C1_SetBuffer(&reg,1);
  4837  0366  3001               	movlw	1
  4838  0367  0020               	movlb	0	; select bank0
  4839  0368  00C1               	movwf	I2C1_SetBuffer@bufferSize
  4840  0369  3000               	movlw	0
  4841  036A  00C2               	movwf	I2C1_SetBuffer@bufferSize+1
  4842  036B  3054               	movlw	(low (I2C1_Write1ByteRegister@reg| 0))& (0+255)
  4843  036C  3186  262F  3183   	fcall	_I2C1_SetBuffer
  4844  036F                     l3962:
  4845                           
  4846                           ;mcc_generated_files/examples/i2c1_master_example.c: 96:     I2C1_SetAddressNackCallback
      +                          (((void*)0),((void*)0));
  4847  036F  3000               	movlw	0
  4848  0370  0020               	movlb	0	; select bank0
  4849  0371  00C6               	movwf	I2C1_SetAddressNackCallback@cb
  4850  0372  00C7               	movwf	I2C1_SetAddressNackCallback@cb+1
  4851  0373  01C8               	clrf	I2C1_SetAddressNackCallback@ptr
  4852  0374  3186  265B  3183   	fcall	_I2C1_SetAddressNackCallback
  4853  0377                     l3964:
  4854                           
  4855                           ;mcc_generated_files/examples/i2c1_master_example.c: 97:     I2C1_MasterWrite();
  4856  0377  3187  2738  3183   	fcall	_I2C1_MasterWrite
  4857  037A                     l3966:	
  4858                           ;mcc_generated_files/examples/i2c1_master_example.c: 98:     while(I2C1_BUSY == I2C1_Clo
      +                          se());
  4859                           
  4860  037A  3184  24D9  3183   	fcall	_I2C1_Close
  4861  037D  3A01               	xorlw	1
  4862  037E  1903               	skipnz
  4863  037F  2B81               	goto	u1411
  4864  0380  2B82               	goto	u1410
  4865  0381                     u1411:
  4866  0381  2B7A               	goto	l3966
  4867  0382                     u1410:
  4868  0382                     l63:
  4869  0382  0008               	return
  4870  0383                     __end_of_I2C1_Write1ByteRegister:
  4871                           
  4872                           	psect	text17
  4873  0316                     __ptext17:	
  4874 ;; *************** function _I2C1_Read1ByteRegister *****************
  4875 ;; Defined at:
  4876 ;;		line 63 in file "mcc_generated_files/examples/i2c1_master_example.c"
  4877 ;; Parameters:    Size  Location     Type
  4878 ;;  address         1    wreg     unsigned char 
  4879 ;;  reg             1   19[BANK0 ] unsigned char 
  4880 ;; Auto vars:     Size  Location     Type
  4881 ;;  address         1   21[BANK0 ] unsigned char 
  4882 ;;  returnValue     1   22[BANK0 ] unsigned char 
  4883 ;; Return value:  Size  Location     Type
  4884 ;;                  1    wreg      unsigned char 
  4885 ;; Registers used:
  4886 ;;		wreg, fsr0l, fsr0h, fsr1l, fsr1h, status,2, status,0, pclath, cstack
  4887 ;; Tracked objects:
  4888 ;;		On entry : 0/0
  4889 ;;		On exit  : 0/0
  4890 ;;		Unchanged: 0/0
  4891 ;; Data sizes:     COMMON   BANK0   BANK1   BANK2   BANK3   BANK4   BANK5   BANK6   BANK7   BANK8   BANK9  BANK10  BANK1
      +1  BANK12
  4892 ;;      Params:         0       1       0       0       0       0       0       0       0       0       0       0       
      +0       0
  4893 ;;      Locals:         0       2       0       0       0       0       0       0       0       0       0       0       
      +0       0
  4894 ;;      Temps:          0       1       0       0       0       0       0       0       0       0       0       0       
      +0       0
  4895 ;;      Totals:         0       4       0       0       0       0       0       0       0       0       0       0       
      +0       0
  4896 ;;Total ram usage:        4 bytes
  4897 ;; Hardware stack levels used: 1
  4898 ;; Hardware stack levels required when called: 14
  4899 ;; This function calls:
  4900 ;;		_I2C1_Close
  4901 ;;		_I2C1_MasterWrite
  4902 ;;		_I2C1_Open
  4903 ;;		_I2C1_SetAddressNackCallback
  4904 ;;		_I2C1_SetBuffer
  4905 ;;		_I2C1_SetDataCompleteCallback
  4906 ;; This function is called by:
  4907 ;;		_main
  4908 ;; This function uses a non-reentrant model
  4909 ;;
  4910                           
  4911                           
  4912                           ;psect for function _I2C1_Read1ByteRegister
  4913  0316                     _I2C1_Read1ByteRegister:
  4914                           
  4915                           ;incstack = 0
  4916                           ; Regs used in _I2C1_Read1ByteRegister: [wreg-fsr1h+status,2+status,0+pclath+cstack]
  4917                           ;I2C1_Read1ByteRegister@address stored from wreg
  4918  0316  0020               	movlb	0	; select bank0
  4919  0317  00D6               	movwf	I2C1_Read1ByteRegister@address
  4920  0318                     l3936:
  4921                           
  4922                           ;mcc_generated_files/examples/i2c1_master_example.c: 63: uint8_t I2C1_Read1ByteRegister(
      +                          i2c1_address_t address, uint8_t reg);mcc_generated_files/examples/i2c1_master_example.c:
      +                           64: {;mcc_generated_files/examples/i2c1_master_example.c: 65:     uint8_t returnValue =
      +                           0x00;
  4923  0318  01D7               	clrf	I2C1_Read1ByteRegister@returnValue
  4924  0319                     l3938:	
  4925                           ;mcc_generated_files/examples/i2c1_master_example.c: 67:     while(!I2C1_Open(address));
  4926                           
  4927  0319  0020               	movlb	0	; select bank0
  4928  031A  0856               	movf	I2C1_Read1ByteRegister@address,w
  4929  031B  3182  22DB  3183   	fcall	_I2C1_Open
  4930  031E  3A00               	xorlw	0
  4931  031F  1903               	skipnz
  4932  0320  2B22               	goto	u1381
  4933  0321  2B23               	goto	u1380
  4934  0322                     u1381:
  4935  0322  2B19               	goto	l3938
  4936  0323                     u1380:
  4937  0323                     l3940:
  4938                           
  4939                           ;mcc_generated_files/examples/i2c1_master_example.c: 68:     I2C1_SetDataCompleteCallbac
      +                          k(rd1RegCompleteHandler,&returnValue);
  4940  0323  3009               	movlw	low _rd1RegCompleteHandler
  4941  0324  0020               	movlb	0	; select bank0
  4942  0325  00C6               	movwf	I2C1_SetDataCompleteCallback@cb
  4943  0326  3006               	movlw	high _rd1RegCompleteHandler
  4944  0327  00C7               	movwf	I2C1_SetDataCompleteCallback@cb+1
  4945  0328  3057               	movlw	(low (I2C1_Read1ByteRegister@returnValue| 0))& (0+255)
  4946  0329  00D5               	movwf	??_I2C1_Read1ByteRegister
  4947  032A  0855               	movf	??_I2C1_Read1ByteRegister,w
  4948  032B  00C8               	movwf	I2C1_SetDataCompleteCallback@ptr
  4949  032C  3186  2669  3183   	fcall	_I2C1_SetDataCompleteCallback
  4950  032F                     l3942:
  4951                           
  4952                           ;mcc_generated_files/examples/i2c1_master_example.c: 69:     I2C1_SetBuffer(&reg,1);
  4953  032F  3001               	movlw	1
  4954  0330  0020               	movlb	0	; select bank0
  4955  0331  00C1               	movwf	I2C1_SetBuffer@bufferSize
  4956  0332  3000               	movlw	0
  4957  0333  00C2               	movwf	I2C1_SetBuffer@bufferSize+1
  4958  0334  3054               	movlw	(low (I2C1_Read1ByteRegister@reg| 0))& (0+255)
  4959  0335  3186  262F  3183   	fcall	_I2C1_SetBuffer
  4960  0338                     l3944:
  4961                           
  4962                           ;mcc_generated_files/examples/i2c1_master_example.c: 70:     I2C1_SetAddressNackCallback
      +                          (((void*)0),((void*)0));
  4963  0338  3000               	movlw	0
  4964  0339  0020               	movlb	0	; select bank0
  4965  033A  00C6               	movwf	I2C1_SetAddressNackCallback@cb
  4966  033B  00C7               	movwf	I2C1_SetAddressNackCallback@cb+1
  4967  033C  01C8               	clrf	I2C1_SetAddressNackCallback@ptr
  4968  033D  3186  265B  3183   	fcall	_I2C1_SetAddressNackCallback
  4969  0340                     l3946:
  4970                           
  4971                           ;mcc_generated_files/examples/i2c1_master_example.c: 71:     I2C1_MasterWrite();
  4972  0340  3187  2738  3183   	fcall	_I2C1_MasterWrite
  4973  0343                     l3948:	
  4974                           ;mcc_generated_files/examples/i2c1_master_example.c: 72:     while(I2C1_BUSY == I2C1_Clo
      +                          se());
  4975                           
  4976  0343  3184  24D9  3183   	fcall	_I2C1_Close
  4977  0346  3A01               	xorlw	1
  4978  0347  1903               	skipnz
  4979  0348  2B4A               	goto	u1391
  4980  0349  2B4B               	goto	u1390
  4981  034A                     u1391:
  4982  034A  2B43               	goto	l3948
  4983  034B                     u1390:
  4984  034B                     l3950:
  4985                           
  4986                           ;mcc_generated_files/examples/i2c1_master_example.c: 74:     return returnValue;
  4987  034B  0020               	movlb	0	; select bank0
  4988  034C  0857               	movf	I2C1_Read1ByteRegister@returnValue,w
  4989  034D                     l45:
  4990  034D  0008               	return
  4991  034E                     __end_of_I2C1_Read1ByteRegister:
  4992                           
  4993                           	psect	text18
  4994  065B                     __ptext18:	
  4995 ;; *************** function _I2C1_SetAddressNackCallback *****************
  4996 ;; Defined at:
  4997 ;;		line 283 in file "mcc_generated_files/i2c1_master.c"
  4998 ;; Parameters:    Size  Location     Type
  4999 ;;  cb              2    5[BANK0 ] PTR FTN(PTR void ,)enum 
  5000 ;;		 -> Absolute function(1), 
  5001 ;;  ptr             1    7[BANK0 ] PTR void 
  5002 ;;		 -> NULL(0), 
  5003 ;; Auto vars:     Size  Location     Type
  5004 ;;		None
  5005 ;; Return value:  Size  Location     Type
  5006 ;;                  1    wreg      void 
  5007 ;; Registers used:
  5008 ;;		wreg, fsr1l, fsr1h, status,2, status,0, pclath, cstack
  5009 ;; Tracked objects:
  5010 ;;		On entry : 0/0
  5011 ;;		On exit  : 0/0
  5012 ;;		Unchanged: 0/0
  5013 ;; Data sizes:     COMMON   BANK0   BANK1   BANK2   BANK3   BANK4   BANK5   BANK6   BANK7   BANK8   BANK9  BANK10  BANK1
      +1  BANK12
  5014 ;;      Params:         0       3       0       0       0       0       0       0       0       0       0       0       
      +0       0
  5015 ;;      Locals:         0       0       0       0       0       0       0       0       0       0       0       0       
      +0       0
  5016 ;;      Temps:          0       1       0       0       0       0       0       0       0       0       0       0       
      +0       0
  5017 ;;      Totals:         0       4       0       0       0       0       0       0       0       0       0       0       
      +0       0
  5018 ;;Total ram usage:        4 bytes
  5019 ;; Hardware stack levels used: 1
  5020 ;; Hardware stack levels required when called: 7
  5021 ;; This function calls:
  5022 ;;		_I2C1_SetCallback
  5023 ;; This function is called by:
  5024 ;;		_I2C1_Read1ByteRegister
  5025 ;;		_I2C1_Write1ByteRegister
  5026 ;;		_I2C1_Read2ByteRegister
  5027 ;;		_I2C1_Write2ByteRegister
  5028 ;;		_I2C1_WriteNBytes
  5029 ;;		_I2C1_ReadDataBlock
  5030 ;; This function uses a non-reentrant model
  5031 ;;
  5032                           
  5033                           
  5034                           ;psect for function _I2C1_SetAddressNackCallback
  5035  065B                     _I2C1_SetAddressNackCallback:
  5036  065B                     l3818:	
  5037                           ;incstack = 0
  5038                           ; Regs used in _I2C1_SetAddressNackCallback: [wreg+fsr1l+fsr1h+status,2+status,0+pclath+
      +                          cstack]
  5039                           
  5040                           
  5041                           ;mcc_generated_files/i2c1_master.c: 283: void I2C1_SetAddressNackCallback(i2c1_callback_
      +                          t cb, void *ptr);mcc_generated_files/i2c1_master.c: 284: {;mcc_generated_files/i2c1_mast
      +                          er.c: 285:     I2C1_SetCallback(I2C1_ADDR_NACK, cb, ptr);
  5042  065B  0020               	movlb	0	; select bank0
  5043  065C  0847               	movf	I2C1_SetAddressNackCallback@cb+1,w
  5044  065D  00C2               	movwf	I2C1_SetCallback@cb+1
  5045  065E  0846               	movf	I2C1_SetAddressNackCallback@cb,w
  5046  065F  00C1               	movwf	I2C1_SetCallback@cb
  5047  0660  0848               	movf	I2C1_SetAddressNackCallback@ptr,w
  5048  0661  00C9               	movwf	??_I2C1_SetAddressNackCallback
  5049  0662  0849               	movf	??_I2C1_SetAddressNackCallback,w
  5050  0663  00C3               	movwf	I2C1_SetCallback@ptr
  5051  0664  3002               	movlw	2
  5052  0665  3184  2438  3186   	fcall	_I2C1_SetCallback
  5053  0668                     l564:
  5054  0668  0008               	return
  5055  0669                     __end_of_I2C1_SetAddressNackCallback:
  5056                           
  5057                           	psect	text19
  5058  02DB                     __ptext19:	
  5059 ;; *************** function _I2C1_Open *****************
  5060 ;; Defined at:
  5061 ;;		line 176 in file "mcc_generated_files/i2c1_master.c"
  5062 ;; Parameters:    Size  Location     Type
  5063 ;;  address         1    wreg     unsigned char 
  5064 ;; Auto vars:     Size  Location     Type
  5065 ;;  address         1    1[BANK0 ] unsigned char 
  5066 ;;  returnValue     1    2[BANK0 ] enum E355
  5067 ;; Return value:  Size  Location     Type
  5068 ;;                  1    wreg      enum E355
  5069 ;; Registers used:
  5070 ;;		wreg, status,2, status,0, pclath, cstack
  5071 ;; Tracked objects:
  5072 ;;		On entry : 0/0
  5073 ;;		On exit  : 0/0
  5074 ;;		Unchanged: 0/0
  5075 ;; Data sizes:     COMMON   BANK0   BANK1   BANK2   BANK3   BANK4   BANK5   BANK6   BANK7   BANK8   BANK9  BANK10  BANK1
      +1  BANK12
  5076 ;;      Params:         0       0       0       0       0       0       0       0       0       0       0       0       
      +0       0
  5077 ;;      Locals:         0       2       0       0       0       0       0       0       0       0       0       0       
      +0       0
  5078 ;;      Temps:          0       1       0       0       0       0       0       0       0       0       0       0       
      +0       0
  5079 ;;      Totals:         0       3       0       0       0       0       0       0       0       0       0       0       
      +0       0
  5080 ;;Total ram usage:        3 bytes
  5081 ;; Hardware stack levels used: 1
  5082 ;; Hardware stack levels required when called: 7
  5083 ;; This function calls:
  5084 ;;		_I2C1_MasterClearIrq
  5085 ;;		_I2C1_MasterOpen
  5086 ;; This function is called by:
  5087 ;;		_I2C1_Read1ByteRegister
  5088 ;;		_I2C1_Write1ByteRegister
  5089 ;;		_I2C1_Read2ByteRegister
  5090 ;;		_I2C1_Write2ByteRegister
  5091 ;;		_I2C1_WriteNBytes
  5092 ;;		_I2C1_ReadNBytes
  5093 ;;		_I2C1_ReadDataBlock
  5094 ;; This function uses a non-reentrant model
  5095 ;;
  5096                           
  5097                           
  5098                           ;psect for function _I2C1_Open
  5099  02DB                     _I2C1_Open:
  5100                           
  5101                           ;incstack = 0
  5102                           ; Regs used in _I2C1_Open: [wreg+status,2+status,0+pclath+cstack]
  5103                           ;I2C1_Open@address stored from wreg
  5104  02DB  0020               	movlb	0	; select bank0
  5105  02DC  00C2               	movwf	I2C1_Open@address
  5106  02DD                     l3786:
  5107                           
  5108                           ;mcc_generated_files/i2c1_master.c: 176: i2c1_error_t I2C1_Open(i2c1_address_t address);
      +                          mcc_generated_files/i2c1_master.c: 177: {;mcc_generated_files/i2c1_master.c: 178:     i2
      +                          c1_error_t returnValue = I2C1_BUSY;
  5109  02DD  01C3               	clrf	I2C1_Open@returnValue
  5110  02DE  0AC3               	incf	I2C1_Open@returnValue,f
  5111                           
  5112                           ;mcc_generated_files/i2c1_master.c: 180:     if(!I2C1_Status.inUse)
  5113  02DF  193C               	btfsc	_I2C1_Status+28,2
  5114  02E0  2AE2               	goto	u1351
  5115  02E1  2AE3               	goto	u1350
  5116  02E2                     u1351:
  5117  02E2  2B14               	goto	l531
  5118  02E3                     u1350:
  5119  02E3                     l3788:
  5120                           
  5121                           ;mcc_generated_files/i2c1_master.c: 181:     {;mcc_generated_files/i2c1_master.c: 182:  
      +                                 I2C1_Status.address = address;
  5122  02E3  0842               	movf	I2C1_Open@address,w
  5123  02E4  00C1               	movwf	??_I2C1_Open
  5124  02E5  0841               	movf	??_I2C1_Open,w
  5125  02E6  00B6               	movwf	_I2C1_Status+22
  5126  02E7                     l3790:
  5127                           
  5128                           ;mcc_generated_files/i2c1_master.c: 183:         I2C1_Status.busy = 0;
  5129  02E7  10BC               	bcf	_I2C1_Status+28,1
  5130  02E8                     l3792:
  5131                           
  5132                           ;mcc_generated_files/i2c1_master.c: 184:         I2C1_Status.inUse = 1;
  5133  02E8  153C               	bsf	_I2C1_Status+28,2
  5134  02E9                     l3794:
  5135                           
  5136                           ;mcc_generated_files/i2c1_master.c: 185:         I2C1_Status.addressNackCheck = 0;
  5137  02E9  103C               	bcf	_I2C1_Status+28,0
  5138                           
  5139                           ;mcc_generated_files/i2c1_master.c: 186:         I2C1_Status.state = I2C1_RESET;
  5140  02EA  300E               	movlw	14
  5141  02EB  00C1               	movwf	??_I2C1_Open
  5142  02EC  0841               	movf	??_I2C1_Open,w
  5143  02ED  00BA               	movwf	_I2C1_Status+26
  5144                           
  5145                           ;mcc_generated_files/i2c1_master.c: 187:         I2C1_Status.time_out_value = 500;
  5146  02EE  30F4               	movlw	244
  5147  02EF  00B4               	movwf	_I2C1_Status+20
  5148  02F0  3001               	movlw	1
  5149  02F1  00B5               	movwf	_I2C1_Status+21
  5150  02F2                     l3796:
  5151                           
  5152                           ;mcc_generated_files/i2c1_master.c: 188:         I2C1_Status.bufferFree = 1;
  5153  02F2  15BC               	bsf	_I2C1_Status+28,3
  5154                           
  5155                           ;mcc_generated_files/i2c1_master.c: 191:         I2C1_Status.callbackTable[I2C1_DATA_COM
      +                          PLETE]=I2C1_CallbackReturnStop;
  5156  02F3  30A3               	movlw	low _I2C1_CallbackReturnStop
  5157  02F4  00A0               	movwf	_I2C1_Status
  5158  02F5  3007               	movlw	high _I2C1_CallbackReturnStop
  5159  02F6  00A1               	movwf	_I2C1_Status+1
  5160  02F7                     l3798:
  5161                           
  5162                           ;mcc_generated_files/i2c1_master.c: 192:         I2C1_Status.callbackPayload[I2C1_DATA_C
      +                          OMPLETE] = ((void*)0);
  5163  02F7  01AC               	clrf	low ((_I2C1_Status| 0+12))
  5164  02F8                     l3800:
  5165                           
  5166                           ;mcc_generated_files/i2c1_master.c: 193:         I2C1_Status.callbackTable[I2C1_WRITE_CO
      +                          LLISION]=I2C1_CallbackReturnStop;
  5167  02F8  30A3               	movlw	low _I2C1_CallbackReturnStop
  5168  02F9  00A2               	movwf	low ((_I2C1_Status| 0+2))
  5169  02FA  3007               	movlw	high _I2C1_CallbackReturnStop
  5170  02FB  00A3               	movwf	(low ((_I2C1_Status| 0+2))+1)
  5171                           
  5172                           ;mcc_generated_files/i2c1_master.c: 194:         I2C1_Status.callbackPayload[I2C1_WRITE_
      +                          COLLISION] = ((void*)0);
  5173  02FC  01AD               	clrf	low ((_I2C1_Status| 0+13))
  5174  02FD                     l3802:
  5175                           
  5176                           ;mcc_generated_files/i2c1_master.c: 195:         I2C1_Status.callbackTable[I2C1_ADDR_NAC
      +                          K]=I2C1_CallbackReturnStop;
  5177  02FD  30A3               	movlw	low _I2C1_CallbackReturnStop
  5178  02FE  00A4               	movwf	low ((_I2C1_Status| 0+4))
  5179  02FF  3007               	movlw	high _I2C1_CallbackReturnStop
  5180  0300  00A5               	movwf	(low ((_I2C1_Status| 0+4))+1)
  5181  0301                     l3804:
  5182                           
  5183                           ;mcc_generated_files/i2c1_master.c: 196:         I2C1_Status.callbackPayload[I2C1_ADDR_N
      +                          ACK] = ((void*)0);
  5184  0301  01AE               	clrf	low ((_I2C1_Status| 0+14))
  5185                           
  5186                           ;mcc_generated_files/i2c1_master.c: 197:         I2C1_Status.callbackTable[I2C1_DATA_NAC
      +                          K]=I2C1_CallbackReturnStop;
  5187  0302  30A3               	movlw	low _I2C1_CallbackReturnStop
  5188  0303  00A6               	movwf	low ((_I2C1_Status| 0+6))
  5189  0304  3007               	movlw	high _I2C1_CallbackReturnStop
  5190  0305  00A7               	movwf	(low ((_I2C1_Status| 0+6))+1)
  5191  0306                     l3806:
  5192                           
  5193                           ;mcc_generated_files/i2c1_master.c: 198:         I2C1_Status.callbackPayload[I2C1_DATA_N
      +                          ACK] = ((void*)0);
  5194  0306  01AF               	clrf	low ((_I2C1_Status| 0+15))
  5195  0307                     l3808:
  5196                           
  5197                           ;mcc_generated_files/i2c1_master.c: 199:         I2C1_Status.callbackTable[I2C1_TIMEOUT]
      +                          =I2C1_CallbackReturnReset;
  5198  0307  30A1               	movlw	low _I2C1_CallbackReturnReset
  5199  0308  00A8               	movwf	low ((_I2C1_Status| 0+8))
  5200  0309  3007               	movlw	high _I2C1_CallbackReturnReset
  5201  030A  00A9               	movwf	(low ((_I2C1_Status| 0+8))+1)
  5202                           
  5203                           ;mcc_generated_files/i2c1_master.c: 200:         I2C1_Status.callbackPayload[I2C1_TIMEOU
      +                          T] = ((void*)0);
  5204  030B  01B0               	clrf	low ((_I2C1_Status| 0+16))
  5205  030C                     l3810:
  5206                           
  5207                           ;mcc_generated_files/i2c1_master.c: 202:         I2C1_MasterClearIrq();
  5208  030C  3187  279B  3182   	fcall	_I2C1_MasterClearIrq
  5209  030F                     l3812:
  5210                           
  5211                           ;mcc_generated_files/i2c1_master.c: 203:         I2C1_MasterOpen();
  5212  030F  3186  2692  3182   	fcall	_I2C1_MasterOpen
  5213  0312                     l3814:
  5214                           
  5215                           ;mcc_generated_files/i2c1_master.c: 204:         returnValue = I2C1_NOERR;
  5216  0312  0020               	movlb	0	; select bank0
  5217  0313  01C3               	clrf	I2C1_Open@returnValue
  5218  0314                     l531:	
  5219                           ;mcc_generated_files/i2c1_master.c: 205:     }
  5220                           
  5221                           
  5222                           ;mcc_generated_files/i2c1_master.c: 206:     return returnValue;
  5223  0314  0843               	movf	I2C1_Open@returnValue,w
  5224  0315                     l532:
  5225  0315  0008               	return
  5226  0316                     __end_of_I2C1_Open:
  5227                           
  5228                           	psect	text20
  5229  0692                     __ptext20:	
  5230 ;; *************** function _I2C1_MasterOpen *****************
  5231 ;; Defined at:
  5232 ;;		line 543 in file "mcc_generated_files/i2c1_master.c"
  5233 ;; Parameters:    Size  Location     Type
  5234 ;;		None
  5235 ;; Auto vars:     Size  Location     Type
  5236 ;;		None
  5237 ;; Return value:  Size  Location     Type
  5238 ;;                  1    wreg      _Bool 
  5239 ;; Registers used:
  5240 ;;		wreg, status,2
  5241 ;; Tracked objects:
  5242 ;;		On entry : 0/0
  5243 ;;		On exit  : 0/0
  5244 ;;		Unchanged: 0/0
  5245 ;; Data sizes:     COMMON   BANK0   BANK1   BANK2   BANK3   BANK4   BANK5   BANK6   BANK7   BANK8   BANK9  BANK10  BANK1
      +1  BANK12
  5246 ;;      Params:         0       0       0       0       0       0       0       0       0       0       0       0       
      +0       0
  5247 ;;      Locals:         0       0       0       0       0       0       0       0       0       0       0       0       
      +0       0
  5248 ;;      Temps:          0       0       0       0       0       0       0       0       0       0       0       0       
      +0       0
  5249 ;;      Totals:         0       0       0       0       0       0       0       0       0       0       0       0       
      +0       0
  5250 ;;Total ram usage:        0 bytes
  5251 ;; Hardware stack levels used: 1
  5252 ;; Hardware stack levels required when called: 6
  5253 ;; This function calls:
  5254 ;;		Nothing
  5255 ;; This function is called by:
  5256 ;;		_I2C1_Open
  5257 ;; This function uses a non-reentrant model
  5258 ;;
  5259                           
  5260                           
  5261                           ;psect for function _I2C1_MasterOpen
  5262  0692                     _I2C1_MasterOpen:
  5263  0692                     l3748:	
  5264                           ;incstack = 0
  5265                           ; Regs used in _I2C1_MasterOpen: [wreg+status,2]
  5266                           
  5267                           
  5268                           ;mcc_generated_files/i2c1_master.c: 545:     if(!SSP1CON1bits.SSPEN)
  5269  0692  0024               	movlb	4	; select bank4
  5270  0693  1A95               	btfsc	21,5	;volatile
  5271  0694  2E96               	goto	u1321
  5272  0695  2E97               	goto	u1320
  5273  0696                     u1321:
  5274  0696  2E9E               	goto	l697
  5275  0697                     u1320:
  5276  0697                     l3750:
  5277                           
  5278                           ;mcc_generated_files/i2c1_master.c: 546:     {;mcc_generated_files/i2c1_master.c: 547:  
      +                                 SSP1STAT = 0x00;
  5279  0697  0194               	clrf	20	;volatile
  5280  0698                     l3752:
  5281                           
  5282                           ;mcc_generated_files/i2c1_master.c: 548:         SSP1CON1 = 0x08;
  5283  0698  3008               	movlw	8
  5284  0699  0095               	movwf	21	;volatile
  5285  069A                     l3754:
  5286                           
  5287                           ;mcc_generated_files/i2c1_master.c: 549:         SSP1CON2 = 0x00;
  5288  069A  0196               	clrf	22	;volatile
  5289                           
  5290                           ;mcc_generated_files/i2c1_master.c: 550:         SSP1ADD = 0x4F;
  5291  069B  304F               	movlw	79
  5292  069C  0092               	movwf	18	;volatile
  5293  069D                     l3756:
  5294                           
  5295                           ;mcc_generated_files/i2c1_master.c: 551:         SSP1CON1bits.SSPEN = 1;
  5296  069D  1695               	bsf	21,5	;volatile
  5297  069E                     l697:
  5298  069E  0008               	return
  5299  069F                     __end_of_I2C1_MasterOpen:
  5300                           
  5301                           	psect	text21
  5302  0738                     __ptext21:	
  5303 ;; *************** function _I2C1_MasterWrite *****************
  5304 ;; Defined at:
  5305 ;;		line 251 in file "mcc_generated_files/i2c1_master.c"
  5306 ;; Parameters:    Size  Location     Type
  5307 ;;		None
  5308 ;; Auto vars:     Size  Location     Type
  5309 ;;		None
  5310 ;; Return value:  Size  Location     Type
  5311 ;;                  1    wreg      enum E355
  5312 ;; Registers used:
  5313 ;;		wreg, fsr0l, fsr0h, fsr1l, fsr1h, status,2, status,0, pclath, cstack
  5314 ;; Tracked objects:
  5315 ;;		On entry : 0/0
  5316 ;;		On exit  : 0/0
  5317 ;;		Unchanged: 0/0
  5318 ;; Data sizes:     COMMON   BANK0   BANK1   BANK2   BANK3   BANK4   BANK5   BANK6   BANK7   BANK8   BANK9  BANK10  BANK1
      +1  BANK12
  5319 ;;      Params:         0       0       0       0       0       0       0       0       0       0       0       0       
      +0       0
  5320 ;;      Locals:         0       0       0       0       0       0       0       0       0       0       0       0       
      +0       0
  5321 ;;      Temps:          0       0       0       0       0       0       0       0       0       0       0       0       
      +0       0
  5322 ;;      Totals:         0       0       0       0       0       0       0       0       0       0       0       0       
      +0       0
  5323 ;;Total ram usage:        0 bytes
  5324 ;; Hardware stack levels used: 1
  5325 ;; Hardware stack levels required when called: 13
  5326 ;; This function calls:
  5327 ;;		_I2C1_MasterOperation
  5328 ;; This function is called by:
  5329 ;;		_I2C1_Read1ByteRegister
  5330 ;;		_I2C1_Write1ByteRegister
  5331 ;;		_I2C1_Read2ByteRegister
  5332 ;;		_I2C1_Write2ByteRegister
  5333 ;;		_I2C1_WriteNBytes
  5334 ;;		_I2C1_ReadDataBlock
  5335 ;; This function uses a non-reentrant model
  5336 ;;
  5337                           
  5338                           
  5339                           ;psect for function _I2C1_MasterWrite
  5340  0738                     _I2C1_MasterWrite:
  5341  0738                     l3820:	
  5342                           ;incstack = 0
  5343                           ; Regs used in _I2C1_MasterWrite: [wreg-fsr1h+status,2+status,0+pclath+cstack]
  5344                           
  5345                           
  5346                           ;mcc_generated_files/i2c1_master.c: 253:     return I2C1_MasterOperation(0);;	Return val
      +                          ue of _I2C1_MasterWrite is never used
  5347  0738  3000               	movlw	0
  5348  0739  3184  249E  3187   	fcall	_I2C1_MasterOperation
  5349  073C                     l548:
  5350  073C  0008               	return
  5351  073D                     __end_of_I2C1_MasterWrite:
  5352                           
  5353                           	psect	text22
  5354  049E                     __ptext22:	
  5355 ;; *************** function _I2C1_MasterOperation *****************
  5356 ;; Defined at:
  5357 ;;		line 224 in file "mcc_generated_files/i2c1_master.c"
  5358 ;; Parameters:    Size  Location     Type
  5359 ;;  read            1    wreg     _Bool 
  5360 ;; Auto vars:     Size  Location     Type
  5361 ;;  read            1   17[BANK0 ] _Bool 
  5362 ;;  returnValue     1   18[BANK0 ] enum E355
  5363 ;; Return value:  Size  Location     Type
  5364 ;;                  1    wreg      enum E355
  5365 ;; Registers used:
  5366 ;;		wreg, fsr0l, fsr0h, fsr1l, fsr1h, status,2, status,0, pclath, cstack
  5367 ;; Tracked objects:
  5368 ;;		On entry : 0/0
  5369 ;;		On exit  : 0/0
  5370 ;;		Unchanged: 0/0
  5371 ;; Data sizes:     COMMON   BANK0   BANK1   BANK2   BANK3   BANK4   BANK5   BANK6   BANK7   BANK8   BANK9  BANK10  BANK1
      +1  BANK12
  5372 ;;      Params:         0       0       0       0       0       0       0       0       0       0       0       0       
      +0       0
  5373 ;;      Locals:         0       2       0       0       0       0       0       0       0       0       0       0       
      +0       0
  5374 ;;      Temps:          0       1       0       0       0       0       0       0       0       0       0       0       
      +0       0
  5375 ;;      Totals:         0       3       0       0       0       0       0       0       0       0       0       0       
      +0       0
  5376 ;;Total ram usage:        3 bytes
  5377 ;; Hardware stack levels used: 1
  5378 ;; Hardware stack levels required when called: 12
  5379 ;; This function calls:
  5380 ;;		_I2C1_MasterStart
  5381 ;;		_I2C1_Poller
  5382 ;; This function is called by:
  5383 ;;		_I2C1_MasterWrite
  5384 ;;		_I2C1_MasterRead
  5385 ;; This function uses a non-reentrant model
  5386 ;;
  5387                           
  5388                           
  5389                           ;psect for function _I2C1_MasterOperation
  5390  049E                     _I2C1_MasterOperation:
  5391                           
  5392                           ;incstack = 0
  5393                           ; Regs used in _I2C1_MasterOperation: [wreg-fsr1h+status,2+status,0+pclath+cstack]
  5394                           ;I2C1_MasterOperation@read stored from wreg
  5395  049E  0020               	movlb	0	; select bank0
  5396  049F  00D2               	movwf	I2C1_MasterOperation@read
  5397  04A0                     l3764:
  5398                           
  5399                           ;mcc_generated_files/i2c1_master.c: 224: i2c1_error_t I2C1_MasterOperation(_Bool read);m
      +                          cc_generated_files/i2c1_master.c: 225: {;mcc_generated_files/i2c1_master.c: 226:     i2c
      +                          1_error_t returnValue = I2C1_BUSY;
  5400  04A0  01D3               	clrf	I2C1_MasterOperation@returnValue
  5401  04A1  0AD3               	incf	I2C1_MasterOperation@returnValue,f
  5402                           
  5403                           ;mcc_generated_files/i2c1_master.c: 227:     if(!I2C1_Status.busy)
  5404  04A2  18BC               	btfsc	_I2C1_Status+28,1
  5405  04A3  2CA5               	goto	u1331
  5406  04A4  2CA6               	goto	u1330
  5407  04A5                     u1331:
  5408  04A5  2CBA               	goto	l3780
  5409  04A6                     u1330:
  5410  04A6                     l3766:
  5411                           
  5412                           ;mcc_generated_files/i2c1_master.c: 228:     {;mcc_generated_files/i2c1_master.c: 229:  
      +                                 I2C1_Status.busy = 1;
  5413  04A6  14BC               	bsf	_I2C1_Status+28,1
  5414  04A7                     l3768:
  5415                           
  5416                           ;mcc_generated_files/i2c1_master.c: 230:         returnValue = I2C1_NOERR;
  5417  04A7  01D3               	clrf	I2C1_MasterOperation@returnValue
  5418  04A8                     l3770:
  5419                           
  5420                           ;mcc_generated_files/i2c1_master.c: 232:         if(read)
  5421  04A8  0852               	movf	I2C1_MasterOperation@read,w
  5422  04A9  1903               	btfsc	3,2
  5423  04AA  2CAC               	goto	u1341
  5424  04AB  2CAD               	goto	u1340
  5425  04AC                     u1341:
  5426  04AC  2CB0               	goto	l3774
  5427  04AD                     u1340:
  5428  04AD                     l3772:
  5429                           
  5430                           ;mcc_generated_files/i2c1_master.c: 233:         {;mcc_generated_files/i2c1_master.c: 23
      +                          4:             I2C1_Status.state = I2C1_SEND_ADR_READ;
  5431  04AD  01BA               	clrf	_I2C1_Status+26
  5432  04AE  0ABA               	incf	_I2C1_Status+26,f
  5433                           
  5434                           ;mcc_generated_files/i2c1_master.c: 235:         }
  5435  04AF  2CB4               	goto	l3776
  5436  04B0                     l3774:
  5437                           
  5438                           ;mcc_generated_files/i2c1_master.c: 237:         {;mcc_generated_files/i2c1_master.c: 23
      +                          8:             I2C1_Status.state = I2C1_SEND_ADR_WRITE;
  5439  04B0  3002               	movlw	2
  5440  04B1  00D1               	movwf	??_I2C1_MasterOperation
  5441  04B2  0851               	movf	??_I2C1_MasterOperation,w
  5442  04B3  00BA               	movwf	_I2C1_Status+26
  5443  04B4                     l3776:
  5444                           
  5445                           ;mcc_generated_files/i2c1_master.c: 240:         I2C1_MasterStart();
  5446  04B4  3187  2792  3184   	fcall	_I2C1_MasterStart
  5447  04B7                     l3778:
  5448                           
  5449                           ;mcc_generated_files/i2c1_master.c: 241:         I2C1_Poller();
  5450  04B7  3186  269F  3184   	fcall	_I2C1_Poller
  5451  04BA                     l3780:
  5452                           
  5453                           ;mcc_generated_files/i2c1_master.c: 243:     return returnValue;
  5454  04BA  0020               	movlb	0	; select bank0
  5455  04BB  0853               	movf	I2C1_MasterOperation@returnValue,w
  5456  04BC                     l542:
  5457  04BC  0008               	return
  5458  04BD                     __end_of_I2C1_MasterOperation:
  5459                           
  5460                           	psect	text23
  5461  069F                     __ptext23:	
  5462 ;; *************** function _I2C1_Poller *****************
  5463 ;; Defined at:
  5464 ;;		line 312 in file "mcc_generated_files/i2c1_master.c"
  5465 ;; Parameters:    Size  Location     Type
  5466 ;;		None
  5467 ;; Auto vars:     Size  Location     Type
  5468 ;;		None
  5469 ;; Return value:  Size  Location     Type
  5470 ;;                  1    wreg      void 
  5471 ;; Registers used:
  5472 ;;		wreg, fsr0l, fsr0h, fsr1l, fsr1h, status,2, status,0, pclath, cstack
  5473 ;; Tracked objects:
  5474 ;;		On entry : 0/0
  5475 ;;		On exit  : 0/0
  5476 ;;		Unchanged: 0/0
  5477 ;; Data sizes:     COMMON   BANK0   BANK1   BANK2   BANK3   BANK4   BANK5   BANK6   BANK7   BANK8   BANK9  BANK10  BANK1
      +1  BANK12
  5478 ;;      Params:         0       0       0       0       0       0       0       0       0       0       0       0       
      +0       0
  5479 ;;      Locals:         0       0       0       0       0       0       0       0       0       0       0       0       
      +0       0
  5480 ;;      Temps:          0       0       0       0       0       0       0       0       0       0       0       0       
      +0       0
  5481 ;;      Totals:         0       0       0       0       0       0       0       0       0       0       0       0       
      +0       0
  5482 ;;Total ram usage:        0 bytes
  5483 ;; Hardware stack levels used: 1
  5484 ;; Hardware stack levels required when called: 11
  5485 ;; This function calls:
  5486 ;;		_I2C1_MasterFsm
  5487 ;;		_I2C1_MasterWaitForEvent
  5488 ;; This function is called by:
  5489 ;;		_I2C1_MasterOperation
  5490 ;; This function uses a non-reentrant model
  5491 ;;
  5492                           
  5493                           
  5494                           ;psect for function _I2C1_Poller
  5495  069F                     _I2C1_Poller:
  5496  069F                     l3736:	
  5497                           ;incstack = 0
  5498                           ; Regs used in _I2C1_Poller: [wreg-fsr1h+status,2+status,0+pclath+cstack]
  5499                           
  5500                           
  5501                           ;mcc_generated_files/i2c1_master.c: 314:     while(I2C1_Status.busy)
  5502  069F  2EA6               	goto	l3742
  5503  06A0                     l3738:
  5504                           
  5505                           ;mcc_generated_files/i2c1_master.c: 315:     {;mcc_generated_files/i2c1_master.c: 316:  
      +                                 I2C1_MasterWaitForEvent();
  5506  06A0  3187  2726  3186   	fcall	_I2C1_MasterWaitForEvent
  5507  06A3                     l3740:
  5508                           
  5509                           ;mcc_generated_files/i2c1_master.c: 317:         I2C1_MasterFsm();
  5510  06A3  3184  240D  3186   	fcall	_I2C1_MasterFsm
  5511  06A6                     l3742:
  5512                           
  5513                           ;mcc_generated_files/i2c1_master.c: 314:     while(I2C1_Status.busy)
  5514  06A6  0020               	movlb	0	; select bank0
  5515  06A7  18BC               	btfsc	_I2C1_Status+28,1
  5516  06A8  2EAA               	goto	u1311
  5517  06A9  2EAB               	goto	u1310
  5518  06AA                     u1311:
  5519  06AA  2EA0               	goto	l3738
  5520  06AB                     u1310:
  5521  06AB                     l581:
  5522  06AB  0008               	return
  5523  06AC                     __end_of_I2C1_Poller:
  5524                           
  5525                           	psect	text24
  5526  0726                     __ptext24:	
  5527 ;; *************** function _I2C1_MasterWaitForEvent *****************
  5528 ;; Defined at:
  5529 ;;		line 650 in file "mcc_generated_files/i2c1_master.c"
  5530 ;; Parameters:    Size  Location     Type
  5531 ;;		None
  5532 ;; Auto vars:     Size  Location     Type
  5533 ;;		None
  5534 ;; Return value:  Size  Location     Type
  5535 ;;                  1    wreg      void 
  5536 ;; Registers used:
  5537 ;;		None
  5538 ;; Tracked objects:
  5539 ;;		On entry : 0/0
  5540 ;;		On exit  : 0/0
  5541 ;;		Unchanged: 0/0
  5542 ;; Data sizes:     COMMON   BANK0   BANK1   BANK2   BANK3   BANK4   BANK5   BANK6   BANK7   BANK8   BANK9  BANK10  BANK1
      +1  BANK12
  5543 ;;      Params:         0       0       0       0       0       0       0       0       0       0       0       0       
      +0       0
  5544 ;;      Locals:         0       0       0       0       0       0       0       0       0       0       0       0       
      +0       0
  5545 ;;      Temps:          0       0       0       0       0       0       0       0       0       0       0       0       
      +0       0
  5546 ;;      Totals:         0       0       0       0       0       0       0       0       0       0       0       0       
      +0       0
  5547 ;;Total ram usage:        0 bytes
  5548 ;; Hardware stack levels used: 1
  5549 ;; Hardware stack levels required when called: 6
  5550 ;; This function calls:
  5551 ;;		Nothing
  5552 ;; This function is called by:
  5553 ;;		_I2C1_Poller
  5554 ;; This function uses a non-reentrant model
  5555 ;;
  5556                           
  5557                           
  5558                           ;psect for function _I2C1_MasterWaitForEvent
  5559  0726                     _I2C1_MasterWaitForEvent:
  5560  0726                     l754:	
  5561                           ;incstack = 0
  5562                           ; Regs used in _I2C1_MasterWaitForEvent: []
  5563                           ;mcc_generated_files/i2c1_master.c: 652:     while(1)
  5564                           
  5565                           
  5566                           ;mcc_generated_files/i2c1_master.c: 653:     {;mcc_generated_files/i2c1_master.c: 654:  
      +                                 if(PIR1bits.SSP1IF)
  5567  0726  0020               	movlb	0	; select bank0
  5568  0727  1D91               	btfss	17,3	;volatile
  5569  0728  2F2A               	goto	u1281
  5570  0729  2F2B               	goto	u1280
  5571  072A                     u1281:
  5572  072A  2F26               	goto	l754
  5573  072B                     u1280:
  5574  072B                     l758:
  5575  072B  0008               	return
  5576  072C                     __end_of_I2C1_MasterWaitForEvent:
  5577                           
  5578                           	psect	text25
  5579  040D                     __ptext25:	
  5580 ;; *************** function _I2C1_MasterFsm *****************
  5581 ;; Defined at:
  5582 ;;		line 321 in file "mcc_generated_files/i2c1_master.c"
  5583 ;; Parameters:    Size  Location     Type
  5584 ;;		None
  5585 ;; Auto vars:     Size  Location     Type
  5586 ;;		None
  5587 ;; Return value:  Size  Location     Type
  5588 ;;                  1    wreg      void 
  5589 ;; Registers used:
  5590 ;;		wreg, fsr0l, fsr0h, fsr1l, fsr1h, status,2, status,0, pclath, cstack
  5591 ;; Tracked objects:
  5592 ;;		On entry : 0/0
  5593 ;;		On exit  : 0/0
  5594 ;;		Unchanged: 0/0
  5595 ;; Data sizes:     COMMON   BANK0   BANK1   BANK2   BANK3   BANK4   BANK5   BANK6   BANK7   BANK8   BANK9  BANK10  BANK1
      +1  BANK12
  5596 ;;      Params:         0       0       0       0       0       0       0       0       0       0       0       0       
      +0       0
  5597 ;;      Locals:         0       0       0       0       0       0       0       0       0       0       0       0       
      +0       0
  5598 ;;      Temps:          0       3       0       0       0       0       0       0       0       0       0       0       
      +0       0
  5599 ;;      Totals:         0       3       0       0       0       0       0       0       0       0       0       0       
      +0       0
  5600 ;;Total ram usage:        3 bytes
  5601 ;; Hardware stack levels used: 1
  5602 ;; Hardware stack levels required when called: 10
  5603 ;; This function calls:
  5604 ;;		_I2C1_DO_ADDRESS_NACK
  5605 ;;		_I2C1_DO_IDLE
  5606 ;;		_I2C1_DO_RCEN
  5607 ;;		_I2C1_DO_RESET
  5608 ;;		_I2C1_DO_RX
  5609 ;;		_I2C1_DO_RX_ACK
  5610 ;;		_I2C1_DO_RX_NACK_RESTART
  5611 ;;		_I2C1_DO_RX_NACK_STOP
  5612 ;;		_I2C1_DO_SEND_ADR_READ
  5613 ;;		_I2C1_DO_SEND_ADR_WRITE
  5614 ;;		_I2C1_DO_SEND_RESTART
  5615 ;;		_I2C1_DO_SEND_RESTART_READ
  5616 ;;		_I2C1_DO_SEND_RESTART_WRITE
  5617 ;;		_I2C1_DO_SEND_STOP
  5618 ;;		_I2C1_DO_TX
  5619 ;;		_I2C1_DO_TX_EMPTY
  5620 ;;		_I2C1_MasterClearIrq
  5621 ;;		_I2C1_MasterIsNack
  5622 ;; This function is called by:
  5623 ;;		_I2C1_Poller
  5624 ;; This function uses a non-reentrant model
  5625 ;;
  5626                           
  5627                           
  5628                           ;psect for function _I2C1_MasterFsm
  5629  040D                     _I2C1_MasterFsm:
  5630  040D                     l3724:	
  5631                           ;incstack = 0
  5632                           ; Regs used in _I2C1_MasterFsm: [wreg-fsr1h+status,2+status,0+pclath+cstack]
  5633                           
  5634                           
  5635                           ;mcc_generated_files/i2c1_master.c: 323:     I2C1_MasterClearIrq();
  5636  040D  3187  279B  3184   	fcall	_I2C1_MasterClearIrq
  5637  0410                     l3726:
  5638                           
  5639                           ;mcc_generated_files/i2c1_master.c: 325:     if(I2C1_Status.addressNackCheck && I2C1_Mas
      +                          terIsNack())
  5640  0410  0020               	movlb	0	; select bank0
  5641  0411  1C3C               	btfss	_I2C1_Status+28,0
  5642  0412  2C14               	goto	u1291
  5643  0413  2C15               	goto	u1290
  5644  0414                     u1291:
  5645  0414  2C22               	goto	l3732
  5646  0415                     u1290:
  5647  0415                     l3728:
  5648  0415  3187  272C  3184   	fcall	_I2C1_MasterIsNack
  5649  0418  3A00               	xorlw	0
  5650  0419  1903               	skipnz
  5651  041A  2C1C               	goto	u1301
  5652  041B  2C1D               	goto	u1300
  5653  041C                     u1301:
  5654  041C  2C22               	goto	l3732
  5655  041D                     u1300:
  5656  041D                     l3730:
  5657                           
  5658                           ;mcc_generated_files/i2c1_master.c: 326:     {;mcc_generated_files/i2c1_master.c: 327:  
      +                                 I2C1_Status.state = I2C1_ADDRESS_NACK;
  5659  041D  300F               	movlw	15
  5660  041E  0020               	movlb	0	; select bank0
  5661  041F  00CE               	movwf	??_I2C1_MasterFsm
  5662  0420  084E               	movf	??_I2C1_MasterFsm,w
  5663  0421  00BA               	movwf	_I2C1_Status+26
  5664  0422                     l3732:
  5665                           
  5666                           ;mcc_generated_files/i2c1_master.c: 329:     I2C1_Status.state = i2c1_fsmStateTable[I2C1
      +                          _Status.state]();
  5667  0422  0020               	movlb	0	; select bank0
  5668  0423  083A               	movf	_I2C1_Status+26,w
  5669  0424  00CE               	movwf	??_I2C1_MasterFsm
  5670  0425  01CF               	clrf	??_I2C1_MasterFsm+1
  5671  0426  35CE               	lslf	??_I2C1_MasterFsm,f
  5672  0427  0DCF               	rlf	??_I2C1_MasterFsm+1,f
  5673  0428  305F               	movlw	low (_i2c1_fsmStateTable| (0+32768))
  5674  0429  074E               	addwf	??_I2C1_MasterFsm,w
  5675  042A  0084               	movwf	4
  5676  042B  3084               	movlw	high (_i2c1_fsmStateTable| (0+32768))
  5677  042C  3D4F               	addwfc	??_I2C1_MasterFsm+1,w
  5678  042D  0085               	movwf	5
  5679  042E  3F01               	moviw [1]fsr0
  5680  042F  008A               	movwf	10
  5681  0430  3F00               	moviw [0]fsr0
  5682  0431  000A               	callw
  5683  0432  3184               	pagesel	$
  5684  0433  0020               	movlb	0	; select bank0
  5685  0434  00D0               	movwf	??_I2C1_MasterFsm+2
  5686  0435  0850               	movf	??_I2C1_MasterFsm+2,w
  5687  0436  00BA               	movwf	_I2C1_Status+26
  5688  0437                     l585:
  5689  0437  0008               	return
  5690  0438                     __end_of_I2C1_MasterFsm:
  5691                           
  5692                           	psect	text26
  5693  03E0                     __ptext26:	
  5694 ;; *************** function _I2C1_DO_ADDRESS_NACK *****************
  5695 ;; Defined at:
  5696 ;;		line 500 in file "mcc_generated_files/i2c1_master.c"
  5697 ;; Parameters:    Size  Location     Type
  5698 ;;		None
  5699 ;; Auto vars:     Size  Location     Type
  5700 ;;		None
  5701 ;; Return value:  Size  Location     Type
  5702 ;;                  1    wreg      enum E3009
  5703 ;; Registers used:
  5704 ;;		wreg, fsr0l, fsr0h, fsr1l, fsr1h, status,2, status,0, pclath, cstack
  5705 ;; Tracked objects:
  5706 ;;		On entry : 0/0
  5707 ;;		On exit  : 0/0
  5708 ;;		Unchanged: 0/0
  5709 ;; Data sizes:     COMMON   BANK0   BANK1   BANK2   BANK3   BANK4   BANK5   BANK6   BANK7   BANK8   BANK9  BANK10  BANK1
      +1  BANK12
  5710 ;;      Params:         0       0       0       0       0       0       0       0       0       0       0       0       
      +0       0
  5711 ;;      Locals:         0       0       0       0       0       0       0       0       0       0       0       0       
      +0       0
  5712 ;;      Temps:          0       3       0       0       0       0       0       0       0       0       0       0       
      +0       0
  5713 ;;      Totals:         0       3       0       0       0       0       0       0       0       0       0       0       
      +0       0
  5714 ;;Total ram usage:        3 bytes
  5715 ;; Hardware stack levels used: 1
  5716 ;; Hardware stack levels required when called: 9
  5717 ;; This function calls:
  5718 ;;		Absolute function
  5719 ;;		_I2C1_CallbackReturnReset
  5720 ;;		_I2C1_CallbackReturnStop
  5721 ;;		_I2C1_DO_SEND_RESTART
  5722 ;;		_I2C1_DO_SEND_STOP
  5723 ;;		_rd1RegCompleteHandler
  5724 ;;		_rd2RegCompleteHandler
  5725 ;;		_rdBlkRegCompleteHandler
  5726 ;;		_wr1RegCompleteHandler
  5727 ;;		_wr2RegCompleteHandler
  5728 ;; This function is called by:
  5729 ;;		_I2C1_MasterFsm
  5730 ;; This function uses a non-reentrant model
  5731 ;;
  5732                           
  5733                           
  5734                           ;psect for function _I2C1_DO_ADDRESS_NACK
  5735  03E0                     _I2C1_DO_ADDRESS_NACK:
  5736  03E0                     l3702:	
  5737                           ;incstack = 0
  5738                           ; Regs used in _I2C1_DO_ADDRESS_NACK: [wreg-fsr1h+status,2+status,0+pclath+cstack]
  5739                           
  5740                           
  5741                           ;mcc_generated_files/i2c1_master.c: 502:     I2C1_Status.addressNackCheck = 0;
  5742  03E0  0020               	movlb	0	; select bank0
  5743  03E1  103C               	bcf	_I2C1_Status+28,0
  5744  03E2                     l3704:
  5745                           
  5746                           ;mcc_generated_files/i2c1_master.c: 503:     I2C1_Status.error = I2C1_FAIL;
  5747  03E2  3002               	movlw	2
  5748  03E3  00CB               	movwf	??_I2C1_DO_ADDRESS_NACK
  5749  03E4  084B               	movf	??_I2C1_DO_ADDRESS_NACK,w
  5750  03E5  00BB               	movwf	_I2C1_Status+27
  5751                           
  5752                           ;mcc_generated_files/i2c1_master.c: 504:     switch(I2C1_Status.callbackTable[I2C1_ADDR_
      +                          NACK](I2C1_Status.callbackPayload[I2C1_ADDR_NACK]))
  5753  03E6  2BEF               	goto	l3716
  5754  03E7                     l3706:
  5755                           
  5756                           ;mcc_generated_files/i2c1_master.c: 508:             return I2C1_DO_SEND_RESTART();
  5757  03E7  3187  2756  3183   	fcall	_I2C1_DO_SEND_RESTART
  5758  03EA  2C0C               	goto	l676
  5759  03EB                     l3710:
  5760                           
  5761                           ;mcc_generated_files/i2c1_master.c: 510:             return I2C1_DO_SEND_STOP();
  5762  03EB  3187  2751  3183   	fcall	_I2C1_DO_SEND_STOP
  5763  03EE  2C0C               	goto	l676
  5764  03EF                     l3716:
  5765  03EF  082E               	movf	low ((_I2C1_Status| 0+14)),w
  5766  03F0  00CB               	movwf	??_I2C1_DO_ADDRESS_NACK
  5767  03F1  084B               	movf	??_I2C1_DO_ADDRESS_NACK,w
  5768  03F2  00CA               	movwf	I2C1_CallbackReturnReset@funPtr
  5769  03F3  3004               	movlw	4
  5770  03F4  3E20               	addlw	(low (_I2C1_Status| 0))& (0+255)
  5771  03F5  0086               	movwf	6
  5772  03F6  0187               	clrf	7
  5773  03F7  3F41               	moviw [1]fsr1
  5774  03F8  008A               	movwf	10
  5775  03F9  3F40               	moviw [0]fsr1
  5776  03FA  000A               	callw
  5777  03FB  3183               	pagesel	$
  5778  03FC  0020               	movlb	0	; select bank0
  5779  03FD  00CC               	movwf	??_I2C1_DO_ADDRESS_NACK+1
  5780  03FE  01CD               	clrf	??_I2C1_DO_ADDRESS_NACK+2
  5781                           
  5782                           ; Switch on 2 bytes has been partitioned into a top level switch of size 1, and 1 sub-sw
      +                          itches
  5783                           ; Switch size 1, requested type "simple"
  5784                           ; Number of cases is 1, Range of values is 0 to 0
  5785                           ; switch strategies available:
  5786                           ; Name         Instructions Cycles
  5787                           ; simple_byte            4     3 (average)
  5788                           ; direct_byte            8     6 (fixed)
  5789                           ; jumptable            260     6 (fixed)
  5790                           ;	Chosen strategy is simple_byte
  5791  03FF  084D               	movf	??_I2C1_DO_ADDRESS_NACK+2,w
  5792  0400  3A00               	xorlw	0	; case 0
  5793  0401  1903               	skipnz
  5794  0402  2C04               	goto	l4194
  5795  0403  2BEB               	goto	l3710
  5796  0404                     l4194:
  5797                           
  5798                           ; Switch size 1, requested type "simple"
  5799                           ; Number of cases is 2, Range of values is 2 to 3
  5800                           ; switch strategies available:
  5801                           ; Name         Instructions Cycles
  5802                           ; simple_byte            7     4 (average)
  5803                           ; direct_byte           13     9 (fixed)
  5804                           ; jumptable            263     9 (fixed)
  5805                           ;	Chosen strategy is simple_byte
  5806  0404  084C               	movf	??_I2C1_DO_ADDRESS_NACK+1,w
  5807  0405  3A02               	xorlw	2	; case 2
  5808  0406  1903               	skipnz
  5809  0407  2BE7               	goto	l3706
  5810  0408  3A01               	xorlw	1	; case 3
  5811  0409  1903               	skipnz
  5812  040A  2BE7               	goto	l3706
  5813  040B  2BEB               	goto	l3710
  5814  040C                     l676:
  5815  040C  0008               	return
  5816  040D                     __end_of_I2C1_DO_ADDRESS_NACK:
  5817                           
  5818                           	psect	text27
  5819  073D                     __ptext27:	
  5820 ;; *************** function _I2C1_DO_RESET *****************
  5821 ;; Defined at:
  5822 ;;		line 494 in file "mcc_generated_files/i2c1_master.c"
  5823 ;; Parameters:    Size  Location     Type
  5824 ;;		None
  5825 ;; Auto vars:     Size  Location     Type
  5826 ;;		None
  5827 ;; Return value:  Size  Location     Type
  5828 ;;                  1    wreg      enum E3009
  5829 ;; Registers used:
  5830 ;;		wreg, status,2
  5831 ;; Tracked objects:
  5832 ;;		On entry : 0/0
  5833 ;;		On exit  : 0/0
  5834 ;;		Unchanged: 0/0
  5835 ;; Data sizes:     COMMON   BANK0   BANK1   BANK2   BANK3   BANK4   BANK5   BANK6   BANK7   BANK8   BANK9  BANK10  BANK1
      +1  BANK12
  5836 ;;      Params:         0       0       0       0       0       0       0       0       0       0       0       0       
      +0       0
  5837 ;;      Locals:         0       0       0       0       0       0       0       0       0       0       0       0       
      +0       0
  5838 ;;      Temps:          0       0       0       0       0       0       0       0       0       0       0       0       
      +0       0
  5839 ;;      Totals:         0       0       0       0       0       0       0       0       0       0       0       0       
      +0       0
  5840 ;;Total ram usage:        0 bytes
  5841 ;; Hardware stack levels used: 1
  5842 ;; Hardware stack levels required when called: 6
  5843 ;; This function calls:
  5844 ;;		Nothing
  5845 ;; This function is called by:
  5846 ;;		_I2C1_MasterFsm
  5847 ;; This function uses a non-reentrant model
  5848 ;;
  5849                           
  5850                           
  5851                           ;psect for function _I2C1_DO_RESET
  5852  073D                     _I2C1_DO_RESET:
  5853  073D                     l3694:	
  5854                           ;incstack = 0
  5855                           ; Regs used in _I2C1_DO_RESET: [wreg+status,2]
  5856                           
  5857                           
  5858                           ;mcc_generated_files/i2c1_master.c: 496:     I2C1_Status.busy = 0;
  5859  073D  0020               	movlb	0	; select bank0
  5860  073E  10BC               	bcf	_I2C1_Status+28,1
  5861  073F                     l3696:
  5862                           
  5863                           ;mcc_generated_files/i2c1_master.c: 497:     I2C1_Status.error = I2C1_NOERR;
  5864  073F  01BB               	clrf	_I2C1_Status+27
  5865  0740                     l3698:
  5866                           
  5867                           ;mcc_generated_files/i2c1_master.c: 498:     return I2C1_RESET;
  5868  0740  300E               	movlw	14
  5869  0741                     l670:
  5870  0741  0008               	return
  5871  0742                     __end_of_I2C1_DO_RESET:
  5872                           
  5873                           	psect	text28
  5874  0742                     __ptext28:	
  5875 ;; *************** function _I2C1_DO_RX_NACK_RESTART *****************
  5876 ;; Defined at:
  5877 ;;		line 488 in file "mcc_generated_files/i2c1_master.c"
  5878 ;; Parameters:    Size  Location     Type
  5879 ;;		None
  5880 ;; Auto vars:     Size  Location     Type
  5881 ;;		None
  5882 ;; Return value:  Size  Location     Type
  5883 ;;                  1    wreg      enum E3009
  5884 ;; Registers used:
  5885 ;;		wreg, status,2, status,0, pclath, cstack
  5886 ;; Tracked objects:
  5887 ;;		On entry : 0/0
  5888 ;;		On exit  : 0/0
  5889 ;;		Unchanged: 0/0
  5890 ;; Data sizes:     COMMON   BANK0   BANK1   BANK2   BANK3   BANK4   BANK5   BANK6   BANK7   BANK8   BANK9  BANK10  BANK1
      +1  BANK12
  5891 ;;      Params:         0       0       0       0       0       0       0       0       0       0       0       0       
      +0       0
  5892 ;;      Locals:         0       0       0       0       0       0       0       0       0       0       0       0       
      +0       0
  5893 ;;      Temps:          0       0       0       0       0       0       0       0       0       0       0       0       
      +0       0
  5894 ;;      Totals:         0       0       0       0       0       0       0       0       0       0       0       0       
      +0       0
  5895 ;;Total ram usage:        0 bytes
  5896 ;; Hardware stack levels used: 1
  5897 ;; Hardware stack levels required when called: 7
  5898 ;; This function calls:
  5899 ;;		_I2C1_MasterSendNack
  5900 ;; This function is called by:
  5901 ;;		_I2C1_DO_RX
  5902 ;;		_I2C1_MasterFsm
  5903 ;; This function uses a non-reentrant model
  5904 ;;
  5905                           
  5906                           
  5907                           ;psect for function _I2C1_DO_RX_NACK_RESTART
  5908  0742                     _I2C1_DO_RX_NACK_RESTART:
  5909  0742                     l3536:	
  5910                           ;incstack = 0
  5911                           ; Regs used in _I2C1_DO_RX_NACK_RESTART: [wreg+status,2+status,0+pclath+cstack]
  5912                           
  5913                           
  5914                           ;mcc_generated_files/i2c1_master.c: 490:     I2C1_MasterSendNack();
  5915  0742  3187  2777  3187   	fcall	_I2C1_MasterSendNack
  5916  0745                     l3538:
  5917                           
  5918                           ;mcc_generated_files/i2c1_master.c: 491:     return I2C1_SEND_RESTART;
  5919  0745  3009               	movlw	9
  5920  0746                     l667:
  5921  0746  0008               	return
  5922  0747                     __end_of_I2C1_DO_RX_NACK_RESTART:
  5923                           
  5924                           	psect	text29
  5925  0747                     __ptext29:	
  5926 ;; *************** function _I2C1_DO_RX_NACK_STOP *****************
  5927 ;; Defined at:
  5928 ;;		line 482 in file "mcc_generated_files/i2c1_master.c"
  5929 ;; Parameters:    Size  Location     Type
  5930 ;;		None
  5931 ;; Auto vars:     Size  Location     Type
  5932 ;;		None
  5933 ;; Return value:  Size  Location     Type
  5934 ;;                  1    wreg      enum E3009
  5935 ;; Registers used:
  5936 ;;		wreg, status,2, status,0, pclath, cstack
  5937 ;; Tracked objects:
  5938 ;;		On entry : 0/0
  5939 ;;		On exit  : 0/0
  5940 ;;		Unchanged: 0/0
  5941 ;; Data sizes:     COMMON   BANK0   BANK1   BANK2   BANK3   BANK4   BANK5   BANK6   BANK7   BANK8   BANK9  BANK10  BANK1
      +1  BANK12
  5942 ;;      Params:         0       0       0       0       0       0       0       0       0       0       0       0       
      +0       0
  5943 ;;      Locals:         0       0       0       0       0       0       0       0       0       0       0       0       
      +0       0
  5944 ;;      Temps:          0       0       0       0       0       0       0       0       0       0       0       0       
      +0       0
  5945 ;;      Totals:         0       0       0       0       0       0       0       0       0       0       0       0       
      +0       0
  5946 ;;Total ram usage:        0 bytes
  5947 ;; Hardware stack levels used: 1
  5948 ;; Hardware stack levels required when called: 7
  5949 ;; This function calls:
  5950 ;;		_I2C1_MasterSendNack
  5951 ;; This function is called by:
  5952 ;;		_I2C1_DO_RX
  5953 ;;		_I2C1_MasterFsm
  5954 ;; This function uses a non-reentrant model
  5955 ;;
  5956                           
  5957                           
  5958                           ;psect for function _I2C1_DO_RX_NACK_STOP
  5959  0747                     _I2C1_DO_RX_NACK_STOP:
  5960  0747                     l3542:	
  5961                           ;incstack = 0
  5962                           ; Regs used in _I2C1_DO_RX_NACK_STOP: [wreg+status,2+status,0+pclath+cstack]
  5963                           
  5964                           
  5965                           ;mcc_generated_files/i2c1_master.c: 484:     I2C1_MasterSendNack();
  5966  0747  3187  2777  3187   	fcall	_I2C1_MasterSendNack
  5967  074A                     l3544:
  5968                           
  5969                           ;mcc_generated_files/i2c1_master.c: 485:     return I2C1_SEND_STOP;
  5970  074A  300A               	movlw	10
  5971  074B                     l664:
  5972  074B  0008               	return
  5973  074C                     __end_of_I2C1_DO_RX_NACK_STOP:
  5974                           
  5975                           	psect	text30
  5976  074C                     __ptext30:	
  5977 ;; *************** function _I2C1_DO_RX_ACK *****************
  5978 ;; Defined at:
  5979 ;;		line 475 in file "mcc_generated_files/i2c1_master.c"
  5980 ;; Parameters:    Size  Location     Type
  5981 ;;		None
  5982 ;; Auto vars:     Size  Location     Type
  5983 ;;		None
  5984 ;; Return value:  Size  Location     Type
  5985 ;;                  1    wreg      enum E3009
  5986 ;; Registers used:
  5987 ;;		wreg, status,2, status,0, pclath, cstack
  5988 ;; Tracked objects:
  5989 ;;		On entry : 0/0
  5990 ;;		On exit  : 0/0
  5991 ;;		Unchanged: 0/0
  5992 ;; Data sizes:     COMMON   BANK0   BANK1   BANK2   BANK3   BANK4   BANK5   BANK6   BANK7   BANK8   BANK9  BANK10  BANK1
      +1  BANK12
  5993 ;;      Params:         0       0       0       0       0       0       0       0       0       0       0       0       
      +0       0
  5994 ;;      Locals:         0       0       0       0       0       0       0       0       0       0       0       0       
      +0       0
  5995 ;;      Temps:          0       0       0       0       0       0       0       0       0       0       0       0       
      +0       0
  5996 ;;      Totals:         0       0       0       0       0       0       0       0       0       0       0       0       
      +0       0
  5997 ;;Total ram usage:        0 bytes
  5998 ;; Hardware stack levels used: 1
  5999 ;; Hardware stack levels required when called: 7
  6000 ;; This function calls:
  6001 ;;		_I2C1_MasterSendAck
  6002 ;; This function is called by:
  6003 ;;		_I2C1_MasterFsm
  6004 ;; This function uses a non-reentrant model
  6005 ;;
  6006                           
  6007                           
  6008                           ;psect for function _I2C1_DO_RX_ACK
  6009  074C                     _I2C1_DO_RX_ACK:
  6010  074C                     l3688:	
  6011                           ;incstack = 0
  6012                           ; Regs used in _I2C1_DO_RX_ACK: [wreg+status,2+status,0+pclath+cstack]
  6013                           
  6014                           
  6015                           ;mcc_generated_files/i2c1_master.c: 477:     I2C1_MasterSendAck();
  6016  074C  3187  2773  3187   	fcall	_I2C1_MasterSendAck
  6017  074F                     l3690:
  6018                           
  6019                           ;mcc_generated_files/i2c1_master.c: 478:     return I2C1_RCEN;
  6020  074F  3005               	movlw	5
  6021  0750                     l661:
  6022  0750  0008               	return
  6023  0751                     __end_of_I2C1_DO_RX_ACK:
  6024                           
  6025                           	psect	text31
  6026  0751                     __ptext31:	
  6027 ;; *************** function _I2C1_DO_SEND_STOP *****************
  6028 ;; Defined at:
  6029 ;;		line 469 in file "mcc_generated_files/i2c1_master.c"
  6030 ;; Parameters:    Size  Location     Type
  6031 ;;		None
  6032 ;; Auto vars:     Size  Location     Type
  6033 ;;		None
  6034 ;; Return value:  Size  Location     Type
  6035 ;;                  1    wreg      enum E3009
  6036 ;; Registers used:
  6037 ;;		wreg, status,2, status,0, pclath, cstack
  6038 ;; Tracked objects:
  6039 ;;		On entry : 0/0
  6040 ;;		On exit  : 0/0
  6041 ;;		Unchanged: 0/0
  6042 ;; Data sizes:     COMMON   BANK0   BANK1   BANK2   BANK3   BANK4   BANK5   BANK6   BANK7   BANK8   BANK9  BANK10  BANK1
      +1  BANK12
  6043 ;;      Params:         0       0       0       0       0       0       0       0       0       0       0       0       
      +0       0
  6044 ;;      Locals:         0       0       0       0       0       0       0       0       0       0       0       0       
      +0       0
  6045 ;;      Temps:          0       0       0       0       0       0       0       0       0       0       0       0       
      +0       0
  6046 ;;      Totals:         0       0       0       0       0       0       0       0       0       0       0       0       
      +0       0
  6047 ;;Total ram usage:        0 bytes
  6048 ;; Hardware stack levels used: 1
  6049 ;; Hardware stack levels required when called: 7
  6050 ;; This function calls:
  6051 ;;		_I2C1_MasterStop
  6052 ;; This function is called by:
  6053 ;;		_I2C1_DO_TX
  6054 ;;		_I2C1_DO_TX_EMPTY
  6055 ;;		_I2C1_DO_ADDRESS_NACK
  6056 ;;		_I2C1_MasterFsm
  6057 ;; This function uses a non-reentrant model
  6058 ;;
  6059                           
  6060                           
  6061                           ;psect for function _I2C1_DO_SEND_STOP
  6062  0751                     _I2C1_DO_SEND_STOP:
  6063  0751                     l3524:	
  6064                           ;incstack = 0
  6065                           ; Regs used in _I2C1_DO_SEND_STOP: [wreg+status,2+status,0+pclath+cstack]
  6066                           
  6067                           
  6068                           ;mcc_generated_files/i2c1_master.c: 471:     I2C1_MasterStop();
  6069  0751  3187  278C  3187   	fcall	_I2C1_MasterStop
  6070  0754                     l3526:
  6071                           
  6072                           ;mcc_generated_files/i2c1_master.c: 472:     return I2C1_IDLE;
  6073  0754  3000               	movlw	0
  6074  0755                     l658:
  6075  0755  0008               	return
  6076  0756                     __end_of_I2C1_DO_SEND_STOP:
  6077                           
  6078                           	psect	text32
  6079  0756                     __ptext32:	
  6080 ;; *************** function _I2C1_DO_SEND_RESTART *****************
  6081 ;; Defined at:
  6082 ;;		line 463 in file "mcc_generated_files/i2c1_master.c"
  6083 ;; Parameters:    Size  Location     Type
  6084 ;;		None
  6085 ;; Auto vars:     Size  Location     Type
  6086 ;;		None
  6087 ;; Return value:  Size  Location     Type
  6088 ;;                  1    wreg      enum E3009
  6089 ;; Registers used:
  6090 ;;		wreg, status,2, status,0, pclath, cstack
  6091 ;; Tracked objects:
  6092 ;;		On entry : 0/0
  6093 ;;		On exit  : 0/0
  6094 ;;		Unchanged: 0/0
  6095 ;; Data sizes:     COMMON   BANK0   BANK1   BANK2   BANK3   BANK4   BANK5   BANK6   BANK7   BANK8   BANK9  BANK10  BANK1
      +1  BANK12
  6096 ;;      Params:         0       0       0       0       0       0       0       0       0       0       0       0       
      +0       0
  6097 ;;      Locals:         0       0       0       0       0       0       0       0       0       0       0       0       
      +0       0
  6098 ;;      Temps:          0       0       0       0       0       0       0       0       0       0       0       0       
      +0       0
  6099 ;;      Totals:         0       0       0       0       0       0       0       0       0       0       0       0       
      +0       0
  6100 ;;Total ram usage:        0 bytes
  6101 ;; Hardware stack levels used: 1
  6102 ;; Hardware stack levels required when called: 7
  6103 ;; This function calls:
  6104 ;;		_I2C1_MasterEnableRestart
  6105 ;; This function is called by:
  6106 ;;		_I2C1_DO_TX_EMPTY
  6107 ;;		_I2C1_DO_ADDRESS_NACK
  6108 ;;		_I2C1_MasterFsm
  6109 ;; This function uses a non-reentrant model
  6110 ;;
  6111                           
  6112                           
  6113                           ;psect for function _I2C1_DO_SEND_RESTART
  6114  0756                     _I2C1_DO_SEND_RESTART:
  6115  0756                     l3550:	
  6116                           ;incstack = 0
  6117                           ; Regs used in _I2C1_DO_SEND_RESTART: [wreg+status,2+status,0+pclath+cstack]
  6118                           
  6119                           
  6120                           ;mcc_generated_files/i2c1_master.c: 465:     I2C1_MasterEnableRestart();
  6121  0756  3187  278F  3187   	fcall	_I2C1_MasterEnableRestart
  6122  0759                     l3552:
  6123                           
  6124                           ;mcc_generated_files/i2c1_master.c: 466:     return I2C1_SEND_ADR_READ;
  6125  0759  3001               	movlw	1
  6126  075A                     l655:
  6127  075A  0008               	return
  6128  075B                     __end_of_I2C1_DO_SEND_RESTART:
  6129                           
  6130                           	psect	text33
  6131  075B                     __ptext33:	
  6132 ;; *************** function _I2C1_DO_SEND_RESTART_WRITE *****************
  6133 ;; Defined at:
  6134 ;;		line 456 in file "mcc_generated_files/i2c1_master.c"
  6135 ;; Parameters:    Size  Location     Type
  6136 ;;		None
  6137 ;; Auto vars:     Size  Location     Type
  6138 ;;		None
  6139 ;; Return value:  Size  Location     Type
  6140 ;;                  1    wreg      enum E3009
  6141 ;; Registers used:
  6142 ;;		wreg, status,2, status,0, pclath, cstack
  6143 ;; Tracked objects:
  6144 ;;		On entry : 0/0
  6145 ;;		On exit  : 0/0
  6146 ;;		Unchanged: 0/0
  6147 ;; Data sizes:     COMMON   BANK0   BANK1   BANK2   BANK3   BANK4   BANK5   BANK6   BANK7   BANK8   BANK9  BANK10  BANK1
      +1  BANK12
  6148 ;;      Params:         0       0       0       0       0       0       0       0       0       0       0       0       
      +0       0
  6149 ;;      Locals:         0       0       0       0       0       0       0       0       0       0       0       0       
      +0       0
  6150 ;;      Temps:          0       0       0       0       0       0       0       0       0       0       0       0       
      +0       0
  6151 ;;      Totals:         0       0       0       0       0       0       0       0       0       0       0       0       
      +0       0
  6152 ;;Total ram usage:        0 bytes
  6153 ;; Hardware stack levels used: 1
  6154 ;; Hardware stack levels required when called: 7
  6155 ;; This function calls:
  6156 ;;		_I2C1_MasterEnableRestart
  6157 ;; This function is called by:
  6158 ;;		_I2C1_DO_TX
  6159 ;;		_I2C1_MasterFsm
  6160 ;; This function uses a non-reentrant model
  6161 ;;
  6162                           
  6163                           
  6164                           ;psect for function _I2C1_DO_SEND_RESTART_WRITE
  6165  075B                     _I2C1_DO_SEND_RESTART_WRITE:
  6166  075B                     l3518:	
  6167                           ;incstack = 0
  6168                           ; Regs used in _I2C1_DO_SEND_RESTART_WRITE: [wreg+status,2+status,0+pclath+cstack]
  6169                           
  6170                           
  6171                           ;mcc_generated_files/i2c1_master.c: 458:     I2C1_MasterEnableRestart();
  6172  075B  3187  278F  3187   	fcall	_I2C1_MasterEnableRestart
  6173  075E                     l3520:
  6174                           
  6175                           ;mcc_generated_files/i2c1_master.c: 459:     return I2C1_SEND_ADR_WRITE;
  6176  075E  3002               	movlw	2
  6177  075F                     l652:
  6178  075F  0008               	return
  6179  0760                     __end_of_I2C1_DO_SEND_RESTART_WRITE:
  6180                           
  6181                           	psect	text34
  6182  0760                     __ptext34:	
  6183 ;; *************** function _I2C1_DO_SEND_RESTART_READ *****************
  6184 ;; Defined at:
  6185 ;;		line 450 in file "mcc_generated_files/i2c1_master.c"
  6186 ;; Parameters:    Size  Location     Type
  6187 ;;		None
  6188 ;; Auto vars:     Size  Location     Type
  6189 ;;		None
  6190 ;; Return value:  Size  Location     Type
  6191 ;;                  1    wreg      enum E3009
  6192 ;; Registers used:
  6193 ;;		wreg, status,2, status,0, pclath, cstack
  6194 ;; Tracked objects:
  6195 ;;		On entry : 0/0
  6196 ;;		On exit  : 0/0
  6197 ;;		Unchanged: 0/0
  6198 ;; Data sizes:     COMMON   BANK0   BANK1   BANK2   BANK3   BANK4   BANK5   BANK6   BANK7   BANK8   BANK9  BANK10  BANK1
      +1  BANK12
  6199 ;;      Params:         0       0       0       0       0       0       0       0       0       0       0       0       
      +0       0
  6200 ;;      Locals:         0       0       0       0       0       0       0       0       0       0       0       0       
      +0       0
  6201 ;;      Temps:          0       0       0       0       0       0       0       0       0       0       0       0       
      +0       0
  6202 ;;      Totals:         0       0       0       0       0       0       0       0       0       0       0       0       
      +0       0
  6203 ;;Total ram usage:        0 bytes
  6204 ;; Hardware stack levels used: 1
  6205 ;; Hardware stack levels required when called: 7
  6206 ;; This function calls:
  6207 ;;		_I2C1_MasterEnableRestart
  6208 ;; This function is called by:
  6209 ;;		_I2C1_DO_TX
  6210 ;;		_I2C1_MasterFsm
  6211 ;; This function uses a non-reentrant model
  6212 ;;
  6213                           
  6214                           
  6215                           ;psect for function _I2C1_DO_SEND_RESTART_READ
  6216  0760                     _I2C1_DO_SEND_RESTART_READ:
  6217  0760                     l3512:	
  6218                           ;incstack = 0
  6219                           ; Regs used in _I2C1_DO_SEND_RESTART_READ: [wreg+status,2+status,0+pclath+cstack]
  6220                           
  6221                           
  6222                           ;mcc_generated_files/i2c1_master.c: 452:     I2C1_MasterEnableRestart();
  6223  0760  3187  278F  3187   	fcall	_I2C1_MasterEnableRestart
  6224  0763                     l3514:
  6225                           
  6226                           ;mcc_generated_files/i2c1_master.c: 453:     return I2C1_SEND_ADR_READ;
  6227  0763  3001               	movlw	1
  6228  0764                     l649:
  6229  0764  0008               	return
  6230  0765                     __end_of_I2C1_DO_SEND_RESTART_READ:
  6231                           
  6232                           	psect	text35
  6233  0707                     __ptext35:	
  6234 ;; *************** function _I2C1_DO_RCEN *****************
  6235 ;; Defined at:
  6236 ;;		line 402 in file "mcc_generated_files/i2c1_master.c"
  6237 ;; Parameters:    Size  Location     Type
  6238 ;;		None
  6239 ;; Auto vars:     Size  Location     Type
  6240 ;;		None
  6241 ;; Return value:  Size  Location     Type
  6242 ;;                  1    wreg      enum E3009
  6243 ;; Registers used:
  6244 ;;		wreg, status,2, status,0, pclath, cstack
  6245 ;; Tracked objects:
  6246 ;;		On entry : 0/0
  6247 ;;		On exit  : 0/0
  6248 ;;		Unchanged: 0/0
  6249 ;; Data sizes:     COMMON   BANK0   BANK1   BANK2   BANK3   BANK4   BANK5   BANK6   BANK7   BANK8   BANK9  BANK10  BANK1
      +1  BANK12
  6250 ;;      Params:         0       0       0       0       0       0       0       0       0       0       0       0       
      +0       0
  6251 ;;      Locals:         0       0       0       0       0       0       0       0       0       0       0       0       
      +0       0
  6252 ;;      Temps:          0       0       0       0       0       0       0       0       0       0       0       0       
      +0       0
  6253 ;;      Totals:         0       0       0       0       0       0       0       0       0       0       0       0       
      +0       0
  6254 ;;Total ram usage:        0 bytes
  6255 ;; Hardware stack levels used: 1
  6256 ;; Hardware stack levels required when called: 7
  6257 ;; This function calls:
  6258 ;;		_I2C1_MasterStartRx
  6259 ;; This function is called by:
  6260 ;;		_I2C1_MasterFsm
  6261 ;; This function uses a non-reentrant model
  6262 ;;
  6263                           
  6264                           
  6265                           ;psect for function _I2C1_DO_RCEN
  6266  0707                     _I2C1_DO_RCEN:
  6267  0707                     l3656:	
  6268                           ;incstack = 0
  6269                           ; Regs used in _I2C1_DO_RCEN: [wreg+status,2+status,0+pclath+cstack]
  6270                           
  6271                           
  6272                           ;mcc_generated_files/i2c1_master.c: 404:     I2C1_Status.addressNackCheck = 0;
  6273  0707  0020               	movlb	0	; select bank0
  6274  0708  103C               	bcf	_I2C1_Status+28,0
  6275  0709                     l3658:
  6276                           
  6277                           ;mcc_generated_files/i2c1_master.c: 405:     I2C1_MasterStartRx();
  6278  0709  3187  2789  3187   	fcall	_I2C1_MasterStartRx
  6279  070C                     l3660:
  6280                           
  6281                           ;mcc_generated_files/i2c1_master.c: 406:     return I2C1_RX;
  6282  070C  3004               	movlw	4
  6283  070D                     l625:
  6284  070D  0008               	return
  6285  070E                     __end_of_I2C1_DO_RCEN:
  6286                           
  6287                           	psect	text36
  6288  0294                     __ptext36:	
  6289 ;; *************** function _I2C1_DO_RX *****************
  6290 ;; Defined at:
  6291 ;;		line 378 in file "mcc_generated_files/i2c1_master.c"
  6292 ;; Parameters:    Size  Location     Type
  6293 ;;		None
  6294 ;; Auto vars:     Size  Location     Type
  6295 ;;		None
  6296 ;; Return value:  Size  Location     Type
  6297 ;;                  1    wreg      enum E3009
  6298 ;; Registers used:
  6299 ;;		wreg, fsr0l, fsr0h, fsr1l, fsr1h, status,2, status,0, pclath, cstack
  6300 ;; Tracked objects:
  6301 ;;		On entry : 0/0
  6302 ;;		On exit  : 0/0
  6303 ;;		Unchanged: 0/0
  6304 ;; Data sizes:     COMMON   BANK0   BANK1   BANK2   BANK3   BANK4   BANK5   BANK6   BANK7   BANK8   BANK9  BANK10  BANK1
      +1  BANK12
  6305 ;;      Params:         0       0       0       0       0       0       0       0       0       0       0       0       
      +0       0
  6306 ;;      Locals:         0       0       0       0       0       0       0       0       0       0       0       0       
      +0       0
  6307 ;;      Temps:          0       3       0       0       0       0       0       0       0       0       0       0       
      +0       0
  6308 ;;      Totals:         0       3       0       0       0       0       0       0       0       0       0       0       
      +0       0
  6309 ;;Total ram usage:        3 bytes
  6310 ;; Hardware stack levels used: 1
  6311 ;; Hardware stack levels required when called: 9
  6312 ;; This function calls:
  6313 ;;		Absolute function
  6314 ;;		_I2C1_CallbackReturnReset
  6315 ;;		_I2C1_CallbackReturnStop
  6316 ;;		_I2C1_DO_RX_NACK_RESTART
  6317 ;;		_I2C1_DO_RX_NACK_STOP
  6318 ;;		_I2C1_MasterGetRxData
  6319 ;;		_I2C1_MasterSendAck
  6320 ;;		_rd1RegCompleteHandler
  6321 ;;		_rd2RegCompleteHandler
  6322 ;;		_rdBlkRegCompleteHandler
  6323 ;;		_wr1RegCompleteHandler
  6324 ;;		_wr2RegCompleteHandler
  6325 ;; This function is called by:
  6326 ;;		_I2C1_MasterFsm
  6327 ;; This function uses a non-reentrant model
  6328 ;;
  6329                           
  6330                           
  6331                           ;psect for function _I2C1_DO_RX
  6332  0294                     _I2C1_DO_RX:
  6333  0294                     l3626:	
  6334                           ;incstack = 0
  6335                           ; Regs used in _I2C1_DO_RX: [wreg-fsr1h+status,2+status,0+pclath+cstack]
  6336                           
  6337                           
  6338                           ;mcc_generated_files/i2c1_master.c: 380:     *I2C1_Status.data_ptr++ = I2C1_MasterGetRxD
      +                          ata();
  6339  0294  3187  2786  3182   	fcall	_I2C1_MasterGetRxData
  6340  0297  0020               	movlb	0	; select bank0
  6341  0298  00CB               	movwf	??_I2C1_DO_RX
  6342  0299  0837               	movf	low ((_I2C1_Status| 0+23)),w
  6343  029A  0086               	movwf	6
  6344  029B  0187               	clrf	7
  6345  029C  084B               	movf	??_I2C1_DO_RX,w
  6346  029D  0081               	movwf	1
  6347  029E                     l3628:
  6348  029E  3001               	movlw	1
  6349  029F  00CB               	movwf	??_I2C1_DO_RX
  6350  02A0  084B               	movf	??_I2C1_DO_RX,w
  6351  02A1  07B7               	addwf	low ((_I2C1_Status| 0+23)),f
  6352  02A2                     l3630:
  6353                           
  6354                           ;mcc_generated_files/i2c1_master.c: 381:     if(--I2C1_Status.data_length)
  6355  02A2  3001               	movlw	1
  6356  02A3  02B8               	subwf	_I2C1_Status+24,f
  6357  02A4  3000               	movlw	0
  6358  02A5  3BB9               	subwfb	_I2C1_Status+25,f
  6359  02A6  0838               	movf	_I2C1_Status+24,w
  6360  02A7  0439               	iorwf	_I2C1_Status+25,w
  6361  02A8  1903               	btfsc	3,2
  6362  02A9  2AAB               	goto	u1271
  6363  02AA  2AAC               	goto	u1270
  6364  02AB                     u1271:
  6365  02AB  2AB1               	goto	l613
  6366  02AC                     u1270:
  6367  02AC                     l3632:
  6368                           
  6369                           ;mcc_generated_files/i2c1_master.c: 382:     {;mcc_generated_files/i2c1_master.c: 383:  
      +                                 I2C1_MasterSendAck();
  6370  02AC  3187  2773  3182   	fcall	_I2C1_MasterSendAck
  6371  02AF                     l3634:
  6372                           
  6373                           ;mcc_generated_files/i2c1_master.c: 384:         return I2C1_RCEN;
  6374  02AF  3005               	movlw	5
  6375  02B0  2ADA               	goto	l614
  6376  02B1                     l613:	
  6377                           ;mcc_generated_files/i2c1_master.c: 386:     else
  6378                           
  6379                           
  6380                           ;mcc_generated_files/i2c1_master.c: 387:     {;mcc_generated_files/i2c1_master.c: 388:  
      +                                 I2C1_Status.bufferFree = 1;
  6381  02B1  15BC               	bsf	_I2C1_Status+28,3
  6382                           
  6383                           ;mcc_generated_files/i2c1_master.c: 389:         switch(I2C1_Status.callbackTable[I2C1_D
      +                          ATA_COMPLETE](I2C1_Status.callbackPayload[I2C1_DATA_COMPLETE]))
  6384  02B2  2ABB               	goto	l3650
  6385  02B3                     l3640:
  6386                           
  6387                           ;mcc_generated_files/i2c1_master.c: 393:                 return I2C1_DO_RX_NACK_RESTART(
      +                          );
  6388  02B3  3187  2742  3182   	fcall	_I2C1_DO_RX_NACK_RESTART
  6389  02B6  2ADA               	goto	l614
  6390  02B7                     l3644:
  6391                           
  6392                           ;mcc_generated_files/i2c1_master.c: 397:                 return I2C1_DO_RX_NACK_STOP();
  6393  02B7  3187  2747  3182   	fcall	_I2C1_DO_RX_NACK_STOP
  6394  02BA  2ADA               	goto	l614
  6395  02BB                     l3650:
  6396  02BB  082C               	movf	low ((_I2C1_Status| 0+12)),w
  6397  02BC  00CB               	movwf	??_I2C1_DO_RX
  6398  02BD  084B               	movf	??_I2C1_DO_RX,w
  6399  02BE  00CA               	movwf	I2C1_CallbackReturnReset@funPtr
  6400  02BF  0821               	movf	_I2C1_Status+1,w
  6401  02C0  008A               	movwf	10
  6402  02C1  0820               	movf	_I2C1_Status,w
  6403  02C2  000A               	callw
  6404  02C3  3182               	pagesel	$
  6405  02C4  0020               	movlb	0	; select bank0
  6406  02C5  00CC               	movwf	??_I2C1_DO_RX+1
  6407  02C6  01CD               	clrf	??_I2C1_DO_RX+2
  6408                           
  6409                           ; Switch on 2 bytes has been partitioned into a top level switch of size 1, and 1 sub-sw
      +                          itches
  6410                           ; Switch size 1, requested type "simple"
  6411                           ; Number of cases is 1, Range of values is 0 to 0
  6412                           ; switch strategies available:
  6413                           ; Name         Instructions Cycles
  6414                           ; simple_byte            4     3 (average)
  6415                           ; direct_byte            8     6 (fixed)
  6416                           ; jumptable            260     6 (fixed)
  6417                           ;	Chosen strategy is simple_byte
  6418  02C7  084D               	movf	??_I2C1_DO_RX+2,w
  6419  02C8  3A00               	xorlw	0	; case 0
  6420  02C9  1903               	skipnz
  6421  02CA  2ACC               	goto	l4196
  6422  02CB  2AB7               	goto	l3644
  6423  02CC                     l4196:
  6424                           
  6425                           ; Switch size 1, requested type "simple"
  6426                           ; Number of cases is 4, Range of values is 1 to 4
  6427                           ; switch strategies available:
  6428                           ; Name         Instructions Cycles
  6429                           ; simple_byte           13     7 (average)
  6430                           ; direct_byte           17     9 (fixed)
  6431                           ; jumptable            263     9 (fixed)
  6432                           ;	Chosen strategy is simple_byte
  6433  02CC  084C               	movf	??_I2C1_DO_RX+1,w
  6434  02CD  3A01               	xorlw	1	; case 1
  6435  02CE  1903               	skipnz
  6436  02CF  2AB7               	goto	l3644
  6437  02D0  3A03               	xorlw	3	; case 2
  6438  02D1  1903               	skipnz
  6439  02D2  2AB3               	goto	l3640
  6440  02D3  3A01               	xorlw	1	; case 3
  6441  02D4  1903               	skipnz
  6442  02D5  2AB3               	goto	l3640
  6443  02D6  3A07               	xorlw	7	; case 4
  6444  02D7  1903               	skipnz
  6445  02D8  2AB7               	goto	l3644
  6446  02D9  2AB7               	goto	l3644
  6447  02DA                     l614:
  6448  02DA  0008               	return
  6449  02DB                     __end_of_I2C1_DO_RX:
  6450                           
  6451                           	psect	text37
  6452  023E                     __ptext37:	
  6453 ;; *************** function _I2C1_DO_TX *****************
  6454 ;; Defined at:
  6455 ;;		line 354 in file "mcc_generated_files/i2c1_master.c"
  6456 ;; Parameters:    Size  Location     Type
  6457 ;;		None
  6458 ;; Auto vars:     Size  Location     Type
  6459 ;;		None
  6460 ;; Return value:  Size  Location     Type
  6461 ;;                  1    wreg      enum E3009
  6462 ;; Registers used:
  6463 ;;		wreg, fsr0l, fsr0h, fsr1l, fsr1h, status,2, status,0, pclath, cstack
  6464 ;; Tracked objects:
  6465 ;;		On entry : 0/0
  6466 ;;		On exit  : 0/0
  6467 ;;		Unchanged: 0/0
  6468 ;; Data sizes:     COMMON   BANK0   BANK1   BANK2   BANK3   BANK4   BANK5   BANK6   BANK7   BANK8   BANK9  BANK10  BANK1
      +1  BANK12
  6469 ;;      Params:         0       0       0       0       0       0       0       0       0       0       0       0       
      +0       0
  6470 ;;      Locals:         0       0       0       0       0       0       0       0       0       0       0       0       
      +0       0
  6471 ;;      Temps:          0       3       0       0       0       0       0       0       0       0       0       0       
      +0       0
  6472 ;;      Totals:         0       3       0       0       0       0       0       0       0       0       0       0       
      +0       0
  6473 ;;Total ram usage:        3 bytes
  6474 ;; Hardware stack levels used: 1
  6475 ;; Hardware stack levels required when called: 9
  6476 ;; This function calls:
  6477 ;;		Absolute function
  6478 ;;		_I2C1_CallbackReturnReset
  6479 ;;		_I2C1_CallbackReturnStop
  6480 ;;		_I2C1_DO_SEND_RESTART_READ
  6481 ;;		_I2C1_DO_SEND_RESTART_WRITE
  6482 ;;		_I2C1_DO_SEND_STOP
  6483 ;;		_I2C1_MasterIsNack
  6484 ;;		_I2C1_MasterSendTxData
  6485 ;;		_rd1RegCompleteHandler
  6486 ;;		_rd2RegCompleteHandler
  6487 ;;		_rdBlkRegCompleteHandler
  6488 ;;		_wr1RegCompleteHandler
  6489 ;;		_wr2RegCompleteHandler
  6490 ;; This function is called by:
  6491 ;;		_I2C1_MasterFsm
  6492 ;; This function uses a non-reentrant model
  6493 ;;
  6494                           
  6495                           
  6496                           ;psect for function _I2C1_DO_TX
  6497  023E                     _I2C1_DO_TX:
  6498  023E                     l3592:	
  6499                           ;incstack = 0
  6500                           ; Regs used in _I2C1_DO_TX: [wreg-fsr1h+status,2+status,0+pclath+cstack]
  6501                           
  6502                           
  6503                           ;mcc_generated_files/i2c1_master.c: 356:     if(I2C1_MasterIsNack())
  6504  023E  3187  272C  3182   	fcall	_I2C1_MasterIsNack
  6505  0241  3A00               	xorlw	0
  6506  0242  1903               	skipnz
  6507  0243  2A45               	goto	u1251
  6508  0244  2A46               	goto	u1250
  6509  0245                     u1251:
  6510  0245  2A77               	goto	l597
  6511  0246                     u1250:
  6512  0246  2A53               	goto	l3610
  6513  0247                     l3596:
  6514                           
  6515                           ;mcc_generated_files/i2c1_master.c: 361:                 return I2C1_DO_SEND_RESTART_REA
      +                          D();
  6516  0247  3187  2760  3182   	fcall	_I2C1_DO_SEND_RESTART_READ
  6517  024A  2A93               	goto	l600
  6518  024B                     l3600:
  6519                           
  6520                           ;mcc_generated_files/i2c1_master.c: 363:                   return I2C1_DO_SEND_RESTART_W
      +                          RITE();
  6521  024B  3187  275B  3182   	fcall	_I2C1_DO_SEND_RESTART_WRITE
  6522  024E  2A93               	goto	l600
  6523  024F                     l3604:
  6524                           
  6525                           ;mcc_generated_files/i2c1_master.c: 367:                 return I2C1_DO_SEND_STOP();
  6526  024F  3187  2751  3182   	fcall	_I2C1_DO_SEND_STOP
  6527  0252  2A93               	goto	l600
  6528  0253                     l3610:
  6529  0253  0020               	movlb	0	; select bank0
  6530  0254  082F               	movf	low ((_I2C1_Status| 0+15)),w
  6531  0255  00CB               	movwf	??_I2C1_DO_TX
  6532  0256  084B               	movf	??_I2C1_DO_TX,w
  6533  0257  00CA               	movwf	I2C1_CallbackReturnReset@funPtr
  6534  0258  3006               	movlw	6
  6535  0259  3E20               	addlw	(low (_I2C1_Status| 0))& (0+255)
  6536  025A  0086               	movwf	6
  6537  025B  0187               	clrf	7
  6538  025C  3F41               	moviw [1]fsr1
  6539  025D  008A               	movwf	10
  6540  025E  3F40               	moviw [0]fsr1
  6541  025F  000A               	callw
  6542  0260  3182               	pagesel	$
  6543  0261  0020               	movlb	0	; select bank0
  6544  0262  00CC               	movwf	??_I2C1_DO_TX+1
  6545  0263  01CD               	clrf	??_I2C1_DO_TX+2
  6546                           
  6547                           ; Switch on 2 bytes has been partitioned into a top level switch of size 1, and 1 sub-sw
      +                          itches
  6548                           ; Switch size 1, requested type "simple"
  6549                           ; Number of cases is 1, Range of values is 0 to 0
  6550                           ; switch strategies available:
  6551                           ; Name         Instructions Cycles
  6552                           ; simple_byte            4     3 (average)
  6553                           ; direct_byte            8     6 (fixed)
  6554                           ; jumptable            260     6 (fixed)
  6555                           ;	Chosen strategy is simple_byte
  6556  0264  084D               	movf	??_I2C1_DO_TX+2,w
  6557  0265  3A00               	xorlw	0	; case 0
  6558  0266  1903               	skipnz
  6559  0267  2A69               	goto	l4198
  6560  0268  2A4F               	goto	l3604
  6561  0269                     l4198:
  6562                           
  6563                           ; Switch size 1, requested type "simple"
  6564                           ; Number of cases is 4, Range of values is 1 to 4
  6565                           ; switch strategies available:
  6566                           ; Name         Instructions Cycles
  6567                           ; simple_byte           13     7 (average)
  6568                           ; direct_byte           17     9 (fixed)
  6569                           ; jumptable            263     9 (fixed)
  6570                           ;	Chosen strategy is simple_byte
  6571  0269  084C               	movf	??_I2C1_DO_TX+1,w
  6572  026A  3A01               	xorlw	1	; case 1
  6573  026B  1903               	skipnz
  6574  026C  2A4F               	goto	l3604
  6575  026D  3A03               	xorlw	3	; case 2
  6576  026E  1903               	skipnz
  6577  026F  2A47               	goto	l3596
  6578  0270  3A01               	xorlw	1	; case 3
  6579  0271  1903               	skipnz
  6580  0272  2A4B               	goto	l3600
  6581  0273  3A07               	xorlw	7	; case 4
  6582  0274  1903               	skipnz
  6583  0275  2A4F               	goto	l3604
  6584  0276  2A4F               	goto	l3604
  6585  0277                     l597:	
  6586                           ;mcc_generated_files/i2c1_master.c: 370:     else
  6587                           
  6588                           
  6589                           ;mcc_generated_files/i2c1_master.c: 371:     {;mcc_generated_files/i2c1_master.c: 372:  
      +                                 I2C1_Status.addressNackCheck = 0;
  6590  0277  0020               	movlb	0	; select bank0
  6591  0278  103C               	bcf	_I2C1_Status+28,0
  6592  0279                     l3612:
  6593                           
  6594                           ;mcc_generated_files/i2c1_master.c: 373:         I2C1_MasterSendTxData(*I2C1_Status.data
      +                          _ptr++);
  6595  0279  3017               	movlw	23
  6596  027A  3E20               	addlw	(low (_I2C1_Status| 0))& (0+255)
  6597  027B  0086               	movwf	6
  6598  027C  0187               	clrf	7
  6599  027D  3F40               	moviw [0]fsr1
  6600  027E  0084               	movwf	4
  6601  027F  0185               	clrf	5
  6602  0280  0A81               	incf	1,f
  6603  0281  0800               	movf	0,w
  6604  0282  3187  2732  3182   	fcall	_I2C1_MasterSendTxData
  6605  0285                     l3614:
  6606                           
  6607                           ;mcc_generated_files/i2c1_master.c: 374:         return (--I2C1_Status.data_length)?I2C1
      +                          _TX:I2C1_TX_EMPTY;
  6608  0285  3001               	movlw	1
  6609  0286  0020               	movlb	0	; select bank0
  6610  0287  02B8               	subwf	_I2C1_Status+24,f
  6611  0288  3000               	movlw	0
  6612  0289  3BB9               	subwfb	_I2C1_Status+25,f
  6613  028A  0838               	movf	_I2C1_Status+24,w
  6614  028B  0439               	iorwf	_I2C1_Status+25,w
  6615  028C  1D03               	btfss	3,2
  6616  028D  2A8F               	goto	u1261
  6617  028E  2A90               	goto	u1260
  6618  028F                     u1261:
  6619  028F  2A92               	goto	l3618
  6620  0290                     u1260:
  6621  0290                     l3616:
  6622  0290  3006               	movlw	6
  6623  0291  2A93               	goto	l600
  6624  0292                     l3618:
  6625  0292  3003               	movlw	3
  6626  0293                     l600:
  6627  0293  0008               	return
  6628  0294                     __end_of_I2C1_DO_TX:
  6629                           
  6630                           	psect	text38
  6631  06FF                     __ptext38:	
  6632 ;; *************** function _I2C1_DO_SEND_ADR_WRITE *****************
  6633 ;; Defined at:
  6634 ;;		line 347 in file "mcc_generated_files/i2c1_master.c"
  6635 ;; Parameters:    Size  Location     Type
  6636 ;;		None
  6637 ;; Auto vars:     Size  Location     Type
  6638 ;;		None
  6639 ;; Return value:  Size  Location     Type
  6640 ;;                  1    wreg      enum E3009
  6641 ;; Registers used:
  6642 ;;		wreg, status,2, status,0, pclath, cstack
  6643 ;; Tracked objects:
  6644 ;;		On entry : 0/0
  6645 ;;		On exit  : 0/0
  6646 ;;		Unchanged: 0/0
  6647 ;; Data sizes:     COMMON   BANK0   BANK1   BANK2   BANK3   BANK4   BANK5   BANK6   BANK7   BANK8   BANK9  BANK10  BANK1
      +1  BANK12
  6648 ;;      Params:         0       0       0       0       0       0       0       0       0       0       0       0       
      +0       0
  6649 ;;      Locals:         0       0       0       0       0       0       0       0       0       0       0       0       
      +0       0
  6650 ;;      Temps:          0       0       0       0       0       0       0       0       0       0       0       0       
      +0       0
  6651 ;;      Totals:         0       0       0       0       0       0       0       0       0       0       0       0       
      +0       0
  6652 ;;Total ram usage:        0 bytes
  6653 ;; Hardware stack levels used: 1
  6654 ;; Hardware stack levels required when called: 7
  6655 ;; This function calls:
  6656 ;;		_I2C1_MasterSendTxData
  6657 ;; This function is called by:
  6658 ;;		_I2C1_MasterFsm
  6659 ;; This function uses a non-reentrant model
  6660 ;;
  6661                           
  6662                           
  6663                           ;psect for function _I2C1_DO_SEND_ADR_WRITE
  6664  06FF                     _I2C1_DO_SEND_ADR_WRITE:
  6665  06FF                     l3584:	
  6666                           ;incstack = 0
  6667                           ; Regs used in _I2C1_DO_SEND_ADR_WRITE: [wreg+status,2+status,0+pclath+cstack]
  6668                           
  6669                           
  6670                           ;mcc_generated_files/i2c1_master.c: 349:     I2C1_Status.addressNackCheck = 1;
  6671  06FF  0020               	movlb	0	; select bank0
  6672  0700  143C               	bsf	_I2C1_Status+28,0
  6673  0701                     l3586:
  6674                           
  6675                           ;mcc_generated_files/i2c1_master.c: 350:     I2C1_MasterSendTxData((uint8_t) (I2C1_Statu
      +                          s.address << 1));
  6676  0701  3536               	lslf	_I2C1_Status+22,w
  6677  0702  3187  2732  3186   	fcall	_I2C1_MasterSendTxData
  6678  0705                     l3588:
  6679                           
  6680                           ;mcc_generated_files/i2c1_master.c: 351:     return I2C1_TX;
  6681  0705  3003               	movlw	3
  6682  0706                     l594:
  6683  0706  0008               	return
  6684  0707                     __end_of_I2C1_DO_SEND_ADR_WRITE:
  6685                           
  6686                           	psect	text39
  6687  06E5                     __ptext39:	
  6688 ;; *************** function _I2C1_DO_SEND_ADR_READ *****************
  6689 ;; Defined at:
  6690 ;;		line 340 in file "mcc_generated_files/i2c1_master.c"
  6691 ;; Parameters:    Size  Location     Type
  6692 ;;		None
  6693 ;; Auto vars:     Size  Location     Type
  6694 ;;		None
  6695 ;; Return value:  Size  Location     Type
  6696 ;;                  1    wreg      enum E3009
  6697 ;; Registers used:
  6698 ;;		wreg, status,2, status,0, pclath, cstack
  6699 ;; Tracked objects:
  6700 ;;		On entry : 0/0
  6701 ;;		On exit  : 0/0
  6702 ;;		Unchanged: 0/0
  6703 ;; Data sizes:     COMMON   BANK0   BANK1   BANK2   BANK3   BANK4   BANK5   BANK6   BANK7   BANK8   BANK9  BANK10  BANK1
      +1  BANK12
  6704 ;;      Params:         0       0       0       0       0       0       0       0       0       0       0       0       
      +0       0
  6705 ;;      Locals:         0       0       0       0       0       0       0       0       0       0       0       0       
      +0       0
  6706 ;;      Temps:          0       0       0       0       0       0       0       0       0       0       0       0       
      +0       0
  6707 ;;      Totals:         0       0       0       0       0       0       0       0       0       0       0       0       
      +0       0
  6708 ;;Total ram usage:        0 bytes
  6709 ;; Hardware stack levels used: 1
  6710 ;; Hardware stack levels required when called: 7
  6711 ;; This function calls:
  6712 ;;		_I2C1_MasterSendTxData
  6713 ;; This function is called by:
  6714 ;;		_I2C1_MasterFsm
  6715 ;; This function uses a non-reentrant model
  6716 ;;
  6717                           
  6718                           
  6719                           ;psect for function _I2C1_DO_SEND_ADR_READ
  6720  06E5                     _I2C1_DO_SEND_ADR_READ:
  6721  06E5                     l3576:	
  6722                           ;incstack = 0
  6723                           ; Regs used in _I2C1_DO_SEND_ADR_READ: [wreg+status,2+status,0+pclath+cstack]
  6724                           
  6725                           
  6726                           ;mcc_generated_files/i2c1_master.c: 342:     I2C1_Status.addressNackCheck = 1;
  6727  06E5  0020               	movlb	0	; select bank0
  6728  06E6  143C               	bsf	_I2C1_Status+28,0
  6729  06E7                     l3578:
  6730                           
  6731                           ;mcc_generated_files/i2c1_master.c: 343:     I2C1_MasterSendTxData((uint8_t) (I2C1_Statu
      +                          s.address << 1 | 1));
  6732  06E7  1403               	setc
  6733  06E8  0D36               	rlf	_I2C1_Status+22,w
  6734  06E9  3187  2732  3186   	fcall	_I2C1_MasterSendTxData
  6735  06EC                     l3580:
  6736                           
  6737                           ;mcc_generated_files/i2c1_master.c: 344:     return I2C1_RCEN;
  6738  06EC  3005               	movlw	5
  6739  06ED                     l591:
  6740  06ED  0008               	return
  6741  06EE                     __end_of_I2C1_DO_SEND_ADR_READ:
  6742                           
  6743                           	psect	text40
  6744  0765                     __ptext40:	
  6745 ;; *************** function _I2C1_DO_IDLE *****************
  6746 ;; Defined at:
  6747 ;;		line 333 in file "mcc_generated_files/i2c1_master.c"
  6748 ;; Parameters:    Size  Location     Type
  6749 ;;		None
  6750 ;; Auto vars:     Size  Location     Type
  6751 ;;		None
  6752 ;; Return value:  Size  Location     Type
  6753 ;;                  1    wreg      enum E3009
  6754 ;; Registers used:
  6755 ;;		wreg, status,2
  6756 ;; Tracked objects:
  6757 ;;		On entry : 0/0
  6758 ;;		On exit  : 0/0
  6759 ;;		Unchanged: 0/0
  6760 ;; Data sizes:     COMMON   BANK0   BANK1   BANK2   BANK3   BANK4   BANK5   BANK6   BANK7   BANK8   BANK9  BANK10  BANK1
      +1  BANK12
  6761 ;;      Params:         0       0       0       0       0       0       0       0       0       0       0       0       
      +0       0
  6762 ;;      Locals:         0       0       0       0       0       0       0       0       0       0       0       0       
      +0       0
  6763 ;;      Temps:          0       0       0       0       0       0       0       0       0       0       0       0       
      +0       0
  6764 ;;      Totals:         0       0       0       0       0       0       0       0       0       0       0       0       
      +0       0
  6765 ;;Total ram usage:        0 bytes
  6766 ;; Hardware stack levels used: 1
  6767 ;; Hardware stack levels required when called: 6
  6768 ;; This function calls:
  6769 ;;		Nothing
  6770 ;; This function is called by:
  6771 ;;		_I2C1_MasterFsm
  6772 ;; This function uses a non-reentrant model
  6773 ;;
  6774                           
  6775                           
  6776                           ;psect for function _I2C1_DO_IDLE
  6777  0765                     _I2C1_DO_IDLE:
  6778  0765                     l3568:	
  6779                           ;incstack = 0
  6780                           ; Regs used in _I2C1_DO_IDLE: [wreg+status,2]
  6781                           
  6782                           
  6783                           ;mcc_generated_files/i2c1_master.c: 335:     I2C1_Status.busy = 0;
  6784  0765  0020               	movlb	0	; select bank0
  6785  0766  10BC               	bcf	_I2C1_Status+28,1
  6786  0767                     l3570:
  6787                           
  6788                           ;mcc_generated_files/i2c1_master.c: 336:     I2C1_Status.error = I2C1_NOERR;
  6789  0767  01BB               	clrf	_I2C1_Status+27
  6790  0768                     l3572:
  6791                           
  6792                           ;mcc_generated_files/i2c1_master.c: 337:     return I2C1_RESET;
  6793  0768  300E               	movlw	14
  6794  0769                     l588:
  6795  0769  0008               	return
  6796  076A                     __end_of_I2C1_DO_IDLE:
  6797                           
  6798                           	psect	text41
  6799  0383                     __ptext41:	
  6800 ;; *************** function _I2C1_DO_TX_EMPTY *****************
  6801 ;; Defined at:
  6802 ;;		line 409 in file "mcc_generated_files/i2c1_master.c"
  6803 ;; Parameters:    Size  Location     Type
  6804 ;;		None
  6805 ;; Auto vars:     Size  Location     Type
  6806 ;;		None
  6807 ;; Return value:  Size  Location     Type
  6808 ;;                  1    wreg      enum E3009
  6809 ;; Registers used:
  6810 ;;		wreg, fsr0l, fsr0h, fsr1l, fsr1h, status,2, status,0, pclath, cstack
  6811 ;; Tracked objects:
  6812 ;;		On entry : 0/0
  6813 ;;		On exit  : 0/0
  6814 ;;		Unchanged: 0/0
  6815 ;; Data sizes:     COMMON   BANK0   BANK1   BANK2   BANK3   BANK4   BANK5   BANK6   BANK7   BANK8   BANK9  BANK10  BANK1
      +1  BANK12
  6816 ;;      Params:         0       0       0       0       0       0       0       0       0       0       0       0       
      +0       0
  6817 ;;      Locals:         0       0       0       0       0       0       0       0       0       0       0       0       
      +0       0
  6818 ;;      Temps:          0       3       0       0       0       0       0       0       0       0       0       0       
      +0       0
  6819 ;;      Totals:         0       3       0       0       0       0       0       0       0       0       0       0       
      +0       0
  6820 ;;Total ram usage:        3 bytes
  6821 ;; Hardware stack levels used: 1
  6822 ;; Hardware stack levels required when called: 9
  6823 ;; This function calls:
  6824 ;;		Absolute function
  6825 ;;		_I2C1_CallbackReturnReset
  6826 ;;		_I2C1_CallbackReturnStop
  6827 ;;		_I2C1_DO_SEND_RESTART
  6828 ;;		_I2C1_DO_SEND_STOP
  6829 ;;		_I2C1_MasterSetIrq
  6830 ;;		_rd1RegCompleteHandler
  6831 ;;		_rd2RegCompleteHandler
  6832 ;;		_rdBlkRegCompleteHandler
  6833 ;;		_wr1RegCompleteHandler
  6834 ;;		_wr2RegCompleteHandler
  6835 ;; This function is called by:
  6836 ;;		_I2C1_MasterFsm
  6837 ;; This function uses a non-reentrant model
  6838 ;;
  6839                           
  6840                           
  6841                           ;psect for function _I2C1_DO_TX_EMPTY
  6842  0383                     _I2C1_DO_TX_EMPTY:
  6843  0383                     l3664:	
  6844                           ;incstack = 0
  6845                           ; Regs used in _I2C1_DO_TX_EMPTY: [wreg-fsr1h+status,2+status,0+pclath+cstack]
  6846                           
  6847                           
  6848                           ;mcc_generated_files/i2c1_master.c: 411:     I2C1_Status.bufferFree = 1;
  6849  0383  0020               	movlb	0	; select bank0
  6850  0384  15BC               	bsf	_I2C1_Status+28,3
  6851                           
  6852                           ;mcc_generated_files/i2c1_master.c: 412:     switch(I2C1_Status.callbackTable[I2C1_DATA_
      +                          COMPLETE](I2C1_Status.callbackPayload[I2C1_DATA_COMPLETE]))
  6853  0385  2B93               	goto	l3682
  6854  0386                     l3666:
  6855                           
  6856                           ;mcc_generated_files/i2c1_master.c: 416:             return I2C1_DO_SEND_RESTART();
  6857  0386  3187  2756  3183   	fcall	_I2C1_DO_SEND_RESTART
  6858  0389  2BB2               	goto	l631
  6859  038A                     l3670:
  6860                           
  6861                           ;mcc_generated_files/i2c1_master.c: 418:             I2C1_MasterSetIrq();
  6862  038A  3187  2783  3183   	fcall	_I2C1_MasterSetIrq
  6863  038D                     l3672:
  6864                           
  6865                           ;mcc_generated_files/i2c1_master.c: 419:             return I2C1_TX;
  6866  038D  3003               	movlw	3
  6867  038E  2BB2               	goto	l631
  6868  038F                     l3676:
  6869                           
  6870                           ;mcc_generated_files/i2c1_master.c: 422:             return I2C1_DO_SEND_STOP();
  6871  038F  3187  2751  3183   	fcall	_I2C1_DO_SEND_STOP
  6872  0392  2BB2               	goto	l631
  6873  0393                     l3682:
  6874  0393  082C               	movf	low ((_I2C1_Status| 0+12)),w
  6875  0394  00CB               	movwf	??_I2C1_DO_TX_EMPTY
  6876  0395  084B               	movf	??_I2C1_DO_TX_EMPTY,w
  6877  0396  00CA               	movwf	I2C1_CallbackReturnReset@funPtr
  6878  0397  0821               	movf	_I2C1_Status+1,w
  6879  0398  008A               	movwf	10
  6880  0399  0820               	movf	_I2C1_Status,w
  6881  039A  000A               	callw
  6882  039B  3183               	pagesel	$
  6883  039C  0020               	movlb	0	; select bank0
  6884  039D  00CC               	movwf	??_I2C1_DO_TX_EMPTY+1
  6885  039E  01CD               	clrf	??_I2C1_DO_TX_EMPTY+2
  6886                           
  6887                           ; Switch on 2 bytes has been partitioned into a top level switch of size 1, and 1 sub-sw
      +                          itches
  6888                           ; Switch size 1, requested type "simple"
  6889                           ; Number of cases is 1, Range of values is 0 to 0
  6890                           ; switch strategies available:
  6891                           ; Name         Instructions Cycles
  6892                           ; simple_byte            4     3 (average)
  6893                           ; direct_byte            8     6 (fixed)
  6894                           ; jumptable            260     6 (fixed)
  6895                           ;	Chosen strategy is simple_byte
  6896  039F  084D               	movf	??_I2C1_DO_TX_EMPTY+2,w
  6897  03A0  3A00               	xorlw	0	; case 0
  6898  03A1  1903               	skipnz
  6899  03A2  2BA4               	goto	l4200
  6900  03A3  2B8F               	goto	l3676
  6901  03A4                     l4200:
  6902                           
  6903                           ; Switch size 1, requested type "simple"
  6904                           ; Number of cases is 4, Range of values is 1 to 4
  6905                           ; switch strategies available:
  6906                           ; Name         Instructions Cycles
  6907                           ; simple_byte           13     7 (average)
  6908                           ; direct_byte           17     9 (fixed)
  6909                           ; jumptable            263     9 (fixed)
  6910                           ;	Chosen strategy is simple_byte
  6911  03A4  084C               	movf	??_I2C1_DO_TX_EMPTY+1,w
  6912  03A5  3A01               	xorlw	1	; case 1
  6913  03A6  1903               	skipnz
  6914  03A7  2B8F               	goto	l3676
  6915  03A8  3A03               	xorlw	3	; case 2
  6916  03A9  1903               	skipnz
  6917  03AA  2B86               	goto	l3666
  6918  03AB  3A01               	xorlw	1	; case 3
  6919  03AC  1903               	skipnz
  6920  03AD  2B86               	goto	l3666
  6921  03AE  3A07               	xorlw	7	; case 4
  6922  03AF  1903               	skipnz
  6923  03B0  2B8A               	goto	l3670
  6924  03B1  2B8F               	goto	l3676
  6925  03B2                     l631:
  6926  03B2  0008               	return
  6927  03B3                     __end_of_I2C1_DO_TX_EMPTY:
  6928                           
  6929                           	psect	text42
  6930  0783                     __ptext42:	
  6931 ;; *************** function _I2C1_MasterSetIrq *****************
  6932 ;; Defined at:
  6933 ;;		line 645 in file "mcc_generated_files/i2c1_master.c"
  6934 ;; Parameters:    Size  Location     Type
  6935 ;;		None
  6936 ;; Auto vars:     Size  Location     Type
  6937 ;;		None
  6938 ;; Return value:  Size  Location     Type
  6939 ;;                  1    wreg      void 
  6940 ;; Registers used:
  6941 ;;		None
  6942 ;; Tracked objects:
  6943 ;;		On entry : 0/0
  6944 ;;		On exit  : 0/0
  6945 ;;		Unchanged: 0/0
  6946 ;; Data sizes:     COMMON   BANK0   BANK1   BANK2   BANK3   BANK4   BANK5   BANK6   BANK7   BANK8   BANK9  BANK10  BANK1
      +1  BANK12
  6947 ;;      Params:         0       0       0       0       0       0       0       0       0       0       0       0       
      +0       0
  6948 ;;      Locals:         0       0       0       0       0       0       0       0       0       0       0       0       
      +0       0
  6949 ;;      Temps:          0       0       0       0       0       0       0       0       0       0       0       0       
      +0       0
  6950 ;;      Totals:         0       0       0       0       0       0       0       0       0       0       0       0       
      +0       0
  6951 ;;Total ram usage:        0 bytes
  6952 ;; Hardware stack levels used: 1
  6953 ;; Hardware stack levels required when called: 6
  6954 ;; This function calls:
  6955 ;;		Nothing
  6956 ;; This function is called by:
  6957 ;;		_I2C1_DO_TX_EMPTY
  6958 ;; This function uses a non-reentrant model
  6959 ;;
  6960                           
  6961                           
  6962                           ;psect for function _I2C1_MasterSetIrq
  6963  0783                     _I2C1_MasterSetIrq:
  6964  0783                     l3556:	
  6965                           ;incstack = 0
  6966                           ; Regs used in _I2C1_MasterSetIrq: []
  6967                           
  6968                           
  6969                           ;mcc_generated_files/i2c1_master.c: 647:     PIR1bits.SSP1IF = 1;
  6970  0783  0020               	movlb	0	; select bank0
  6971  0784  1591               	bsf	17,3	;volatile
  6972  0785                     l751:
  6973  0785  0008               	return
  6974  0786                     __end_of_I2C1_MasterSetIrq:
  6975                           
  6976                           	psect	text43
  6977  072C                     __ptext43:	
  6978 ;; *************** function _I2C1_MasterIsNack *****************
  6979 ;; Defined at:
  6980 ;;		line 598 in file "mcc_generated_files/i2c1_master.c"
  6981 ;; Parameters:    Size  Location     Type
  6982 ;;		None
  6983 ;; Auto vars:     Size  Location     Type
  6984 ;;		None
  6985 ;; Return value:  Size  Location     Type
  6986 ;;                  1    wreg      _Bool 
  6987 ;; Registers used:
  6988 ;;		wreg, status,2, status,0
  6989 ;; Tracked objects:
  6990 ;;		On entry : 0/0
  6991 ;;		On exit  : 0/0
  6992 ;;		Unchanged: 0/0
  6993 ;; Data sizes:     COMMON   BANK0   BANK1   BANK2   BANK3   BANK4   BANK5   BANK6   BANK7   BANK8   BANK9  BANK10  BANK1
      +1  BANK12
  6994 ;;      Params:         0       0       0       0       0       0       0       0       0       0       0       0       
      +0       0
  6995 ;;      Locals:         0       0       0       0       0       0       0       0       0       0       0       0       
      +0       0
  6996 ;;      Temps:          0       0       0       0       0       0       0       0       0       0       0       0       
      +0       0
  6997 ;;      Totals:         0       0       0       0       0       0       0       0       0       0       0       0       
      +0       0
  6998 ;;Total ram usage:        0 bytes
  6999 ;; Hardware stack levels used: 1
  7000 ;; Hardware stack levels required when called: 6
  7001 ;; This function calls:
  7002 ;;		Nothing
  7003 ;; This function is called by:
  7004 ;;		_I2C1_MasterFsm
  7005 ;;		_I2C1_DO_TX
  7006 ;; This function uses a non-reentrant model
  7007 ;;
  7008                           
  7009                           
  7010                           ;psect for function _I2C1_MasterIsNack
  7011  072C                     _I2C1_MasterIsNack:
  7012  072C                     l3506:	
  7013                           ;incstack = 0
  7014                           ; Regs used in _I2C1_MasterIsNack: [wreg+status,2+status,0]
  7015                           
  7016                           
  7017                           ;mcc_generated_files/i2c1_master.c: 600:     return SSP1CON2bits.ACKSTAT;
  7018  072C  0024               	movlb	4	; select bank4
  7019  072D  0E16               	swapf	22,w	;volatile
  7020  072E  0C89               	rrf	9,f
  7021  072F  0C89               	rrf	9,f
  7022  0730  3901               	andlw	1
  7023  0731                     l724:
  7024  0731  0008               	return
  7025  0732                     __end_of_I2C1_MasterIsNack:
  7026                           
  7027                           	psect	text44
  7028  0732                     __ptext44:	
  7029 ;; *************** function _I2C1_MasterSendTxData *****************
  7030 ;; Defined at:
  7031 ;;		line 568 in file "mcc_generated_files/i2c1_master.c"
  7032 ;; Parameters:    Size  Location     Type
  7033 ;;  data            1    wreg     unsigned char 
  7034 ;; Auto vars:     Size  Location     Type
  7035 ;;  data            1    0[BANK0 ] unsigned char 
  7036 ;; Return value:  Size  Location     Type
  7037 ;;                  1    wreg      void 
  7038 ;; Registers used:
  7039 ;;		wreg
  7040 ;; Tracked objects:
  7041 ;;		On entry : 0/0
  7042 ;;		On exit  : 0/0
  7043 ;;		Unchanged: 0/0
  7044 ;; Data sizes:     COMMON   BANK0   BANK1   BANK2   BANK3   BANK4   BANK5   BANK6   BANK7   BANK8   BANK9  BANK10  BANK1
      +1  BANK12
  7045 ;;      Params:         0       0       0       0       0       0       0       0       0       0       0       0       
      +0       0
  7046 ;;      Locals:         0       1       0       0       0       0       0       0       0       0       0       0       
      +0       0
  7047 ;;      Temps:          0       0       0       0       0       0       0       0       0       0       0       0       
      +0       0
  7048 ;;      Totals:         0       1       0       0       0       0       0       0       0       0       0       0       
      +0       0
  7049 ;;Total ram usage:        1 bytes
  7050 ;; Hardware stack levels used: 1
  7051 ;; Hardware stack levels required when called: 6
  7052 ;; This function calls:
  7053 ;;		Nothing
  7054 ;; This function is called by:
  7055 ;;		_I2C1_DO_SEND_ADR_READ
  7056 ;;		_I2C1_DO_SEND_ADR_WRITE
  7057 ;;		_I2C1_DO_TX
  7058 ;; This function uses a non-reentrant model
  7059 ;;
  7060                           
  7061                           
  7062                           ;psect for function _I2C1_MasterSendTxData
  7063  0732                     _I2C1_MasterSendTxData:
  7064                           
  7065                           ;incstack = 0
  7066                           ; Regs used in _I2C1_MasterSendTxData: [wreg]
  7067                           ;I2C1_MasterSendTxData@data stored from wreg
  7068  0732  0020               	movlb	0	; select bank0
  7069  0733  00C1               	movwf	I2C1_MasterSendTxData@data
  7070  0734                     l3510:
  7071                           
  7072                           ;mcc_generated_files/i2c1_master.c: 568: static __attribute__((inline)) void I2C1_Master
      +                          SendTxData(uint8_t data);mcc_generated_files/i2c1_master.c: 569: {;mcc_generated_files/i
      +                          2c1_master.c: 570:     SSP1BUF = data;
  7073  0734  0841               	movf	I2C1_MasterSendTxData@data,w
  7074  0735  0024               	movlb	4	; select bank4
  7075  0736  0091               	movwf	17	;volatile
  7076  0737                     l706:
  7077  0737  0008               	return
  7078  0738                     __end_of_I2C1_MasterSendTxData:
  7079                           
  7080                           	psect	text45
  7081  0773                     __ptext45:	
  7082 ;; *************** function _I2C1_MasterSendAck *****************
  7083 ;; Defined at:
  7084 ;;		line 603 in file "mcc_generated_files/i2c1_master.c"
  7085 ;; Parameters:    Size  Location     Type
  7086 ;;		None
  7087 ;; Auto vars:     Size  Location     Type
  7088 ;;		None
  7089 ;; Return value:  Size  Location     Type
  7090 ;;                  1    wreg      void 
  7091 ;; Registers used:
  7092 ;;		None
  7093 ;; Tracked objects:
  7094 ;;		On entry : 0/0
  7095 ;;		On exit  : 0/0
  7096 ;;		Unchanged: 0/0
  7097 ;; Data sizes:     COMMON   BANK0   BANK1   BANK2   BANK3   BANK4   BANK5   BANK6   BANK7   BANK8   BANK9  BANK10  BANK1
      +1  BANK12
  7098 ;;      Params:         0       0       0       0       0       0       0       0       0       0       0       0       
      +0       0
  7099 ;;      Locals:         0       0       0       0       0       0       0       0       0       0       0       0       
      +0       0
  7100 ;;      Temps:          0       0       0       0       0       0       0       0       0       0       0       0       
      +0       0
  7101 ;;      Totals:         0       0       0       0       0       0       0       0       0       0       0       0       
      +0       0
  7102 ;;Total ram usage:        0 bytes
  7103 ;; Hardware stack levels used: 1
  7104 ;; Hardware stack levels required when called: 6
  7105 ;; This function calls:
  7106 ;;		Nothing
  7107 ;; This function is called by:
  7108 ;;		_I2C1_DO_RX
  7109 ;;		_I2C1_DO_RX_ACK
  7110 ;; This function uses a non-reentrant model
  7111 ;;
  7112                           
  7113                           
  7114                           ;psect for function _I2C1_MasterSendAck
  7115  0773                     _I2C1_MasterSendAck:
  7116  0773                     l3534:	
  7117                           ;incstack = 0
  7118                           ; Regs used in _I2C1_MasterSendAck: []
  7119                           
  7120                           
  7121                           ;mcc_generated_files/i2c1_master.c: 605:     SSP1CON2bits.ACKDT = 0;
  7122  0773  0024               	movlb	4	; select bank4
  7123  0774  1296               	bcf	22,5	;volatile
  7124                           
  7125                           ;mcc_generated_files/i2c1_master.c: 606:     SSP1CON2bits.ACKEN = 1;
  7126  0775  1616               	bsf	22,4	;volatile
  7127  0776                     l727:
  7128  0776  0008               	return
  7129  0777                     __end_of_I2C1_MasterSendAck:
  7130                           
  7131                           	psect	text46
  7132  0786                     __ptext46:	
  7133 ;; *************** function _I2C1_MasterGetRxData *****************
  7134 ;; Defined at:
  7135 ;;		line 563 in file "mcc_generated_files/i2c1_master.c"
  7136 ;; Parameters:    Size  Location     Type
  7137 ;;		None
  7138 ;; Auto vars:     Size  Location     Type
  7139 ;;		None
  7140 ;; Return value:  Size  Location     Type
  7141 ;;                  1    wreg      unsigned char 
  7142 ;; Registers used:
  7143 ;;		wreg
  7144 ;; Tracked objects:
  7145 ;;		On entry : 0/0
  7146 ;;		On exit  : 0/0
  7147 ;;		Unchanged: 0/0
  7148 ;; Data sizes:     COMMON   BANK0   BANK1   BANK2   BANK3   BANK4   BANK5   BANK6   BANK7   BANK8   BANK9  BANK10  BANK1
      +1  BANK12
  7149 ;;      Params:         0       0       0       0       0       0       0       0       0       0       0       0       
      +0       0
  7150 ;;      Locals:         0       0       0       0       0       0       0       0       0       0       0       0       
      +0       0
  7151 ;;      Temps:          0       0       0       0       0       0       0       0       0       0       0       0       
      +0       0
  7152 ;;      Totals:         0       0       0       0       0       0       0       0       0       0       0       0       
      +0       0
  7153 ;;Total ram usage:        0 bytes
  7154 ;; Hardware stack levels used: 1
  7155 ;; Hardware stack levels required when called: 6
  7156 ;; This function calls:
  7157 ;;		Nothing
  7158 ;; This function is called by:
  7159 ;;		_I2C1_DO_RX
  7160 ;; This function uses a non-reentrant model
  7161 ;;
  7162                           
  7163                           
  7164                           ;psect for function _I2C1_MasterGetRxData
  7165  0786                     _I2C1_MasterGetRxData:
  7166  0786                     l3530:	
  7167                           ;incstack = 0
  7168                           ; Regs used in _I2C1_MasterGetRxData: [wreg]
  7169                           
  7170                           
  7171                           ;mcc_generated_files/i2c1_master.c: 565:     return SSP1BUF;
  7172  0786  0024               	movlb	4	; select bank4
  7173  0787  0811               	movf	17,w	;volatile
  7174  0788                     l703:
  7175  0788  0008               	return
  7176  0789                     __end_of_I2C1_MasterGetRxData:
  7177                           
  7178                           	psect	text47
  7179  0777                     __ptext47:	
  7180 ;; *************** function _I2C1_MasterSendNack *****************
  7181 ;; Defined at:
  7182 ;;		line 609 in file "mcc_generated_files/i2c1_master.c"
  7183 ;; Parameters:    Size  Location     Type
  7184 ;;		None
  7185 ;; Auto vars:     Size  Location     Type
  7186 ;;		None
  7187 ;; Return value:  Size  Location     Type
  7188 ;;                  1    wreg      void 
  7189 ;; Registers used:
  7190 ;;		None
  7191 ;; Tracked objects:
  7192 ;;		On entry : 0/0
  7193 ;;		On exit  : 0/0
  7194 ;;		Unchanged: 0/0
  7195 ;; Data sizes:     COMMON   BANK0   BANK1   BANK2   BANK3   BANK4   BANK5   BANK6   BANK7   BANK8   BANK9  BANK10  BANK1
      +1  BANK12
  7196 ;;      Params:         0       0       0       0       0       0       0       0       0       0       0       0       
      +0       0
  7197 ;;      Locals:         0       0       0       0       0       0       0       0       0       0       0       0       
      +0       0
  7198 ;;      Temps:          0       0       0       0       0       0       0       0       0       0       0       0       
      +0       0
  7199 ;;      Totals:         0       0       0       0       0       0       0       0       0       0       0       0       
      +0       0
  7200 ;;Total ram usage:        0 bytes
  7201 ;; Hardware stack levels used: 1
  7202 ;; Hardware stack levels required when called: 6
  7203 ;; This function calls:
  7204 ;;		Nothing
  7205 ;; This function is called by:
  7206 ;;		_I2C1_DO_RX_NACK_STOP
  7207 ;;		_I2C1_DO_RX_NACK_RESTART
  7208 ;; This function uses a non-reentrant model
  7209 ;;
  7210                           
  7211                           
  7212                           ;psect for function _I2C1_MasterSendNack
  7213  0777                     _I2C1_MasterSendNack:
  7214  0777                     l3466:	
  7215                           ;incstack = 0
  7216                           ; Regs used in _I2C1_MasterSendNack: []
  7217                           
  7218                           
  7219                           ;mcc_generated_files/i2c1_master.c: 611:     SSP1CON2bits.ACKDT = 1;
  7220  0777  0024               	movlb	4	; select bank4
  7221  0778  1696               	bsf	22,5	;volatile
  7222                           
  7223                           ;mcc_generated_files/i2c1_master.c: 612:     SSP1CON2bits.ACKEN = 1;
  7224  0779  1616               	bsf	22,4	;volatile
  7225  077A                     l730:
  7226  077A  0008               	return
  7227  077B                     __end_of_I2C1_MasterSendNack:
  7228                           
  7229                           	psect	text48
  7230  0789                     __ptext48:	
  7231 ;; *************** function _I2C1_MasterStartRx *****************
  7232 ;; Defined at:
  7233 ;;		line 583 in file "mcc_generated_files/i2c1_master.c"
  7234 ;; Parameters:    Size  Location     Type
  7235 ;;		None
  7236 ;; Auto vars:     Size  Location     Type
  7237 ;;		None
  7238 ;; Return value:  Size  Location     Type
  7239 ;;                  1    wreg      void 
  7240 ;; Registers used:
  7241 ;;		None
  7242 ;; Tracked objects:
  7243 ;;		On entry : 0/0
  7244 ;;		On exit  : 0/0
  7245 ;;		Unchanged: 0/0
  7246 ;; Data sizes:     COMMON   BANK0   BANK1   BANK2   BANK3   BANK4   BANK5   BANK6   BANK7   BANK8   BANK9  BANK10  BANK1
      +1  BANK12
  7247 ;;      Params:         0       0       0       0       0       0       0       0       0       0       0       0       
      +0       0
  7248 ;;      Locals:         0       0       0       0       0       0       0       0       0       0       0       0       
      +0       0
  7249 ;;      Temps:          0       0       0       0       0       0       0       0       0       0       0       0       
      +0       0
  7250 ;;      Totals:         0       0       0       0       0       0       0       0       0       0       0       0       
      +0       0
  7251 ;;Total ram usage:        0 bytes
  7252 ;; Hardware stack levels used: 1
  7253 ;; Hardware stack levels required when called: 6
  7254 ;; This function calls:
  7255 ;;		Nothing
  7256 ;; This function is called by:
  7257 ;;		_I2C1_DO_RCEN
  7258 ;; This function uses a non-reentrant model
  7259 ;;
  7260                           
  7261                           
  7262                           ;psect for function _I2C1_MasterStartRx
  7263  0789                     _I2C1_MasterStartRx:
  7264  0789                     l3548:	
  7265                           ;incstack = 0
  7266                           ; Regs used in _I2C1_MasterStartRx: []
  7267                           
  7268                           
  7269                           ;mcc_generated_files/i2c1_master.c: 585:     SSP1CON2bits.RCEN = 1;
  7270  0789  0024               	movlb	4	; select bank4
  7271  078A  1596               	bsf	22,3	;volatile
  7272  078B                     l715:
  7273  078B  0008               	return
  7274  078C                     __end_of_I2C1_MasterStartRx:
  7275                           
  7276                           	psect	text49
  7277  07A1                     __ptext49:	
  7278 ;; *************** function _I2C1_CallbackReturnReset *****************
  7279 ;; Defined at:
  7280 ;;		line 525 in file "mcc_generated_files/i2c1_master.c"
  7281 ;; Parameters:    Size  Location     Type
  7282 ;;  funPtr          1    9[BANK0 ] PTR void 
  7283 ;;		 -> I2C1_ReadDataBlock@bufferBlock(3), I2C1_Write2ByteRegister@data(2), I2C1_Write1ByteRegister@data(1), I2C1_Read2B
      +yteRegister@returnValue(2), 
  7284 ;;		 -> NULL(0), I2C1_Read1ByteRegister@returnValue(1), 
  7285 ;; Auto vars:     Size  Location     Type
  7286 ;;		None
  7287 ;; Return value:  Size  Location     Type
  7288 ;;                  1    wreg      enum E360
  7289 ;; Registers used:
  7290 ;;		wreg
  7291 ;; Tracked objects:
  7292 ;;		On entry : 0/0
  7293 ;;		On exit  : 0/0
  7294 ;;		Unchanged: 0/0
  7295 ;; Data sizes:     COMMON   BANK0   BANK1   BANK2   BANK3   BANK4   BANK5   BANK6   BANK7   BANK8   BANK9  BANK10  BANK1
      +1  BANK12
  7296 ;;      Params:         0       1       0       0       0       0       0       0       0       0       0       0       
      +0       0
  7297 ;;      Locals:         0       0       0       0       0       0       0       0       0       0       0       0       
      +0       0
  7298 ;;      Temps:          0       0       0       0       0       0       0       0       0       0       0       0       
      +0       0
  7299 ;;      Totals:         0       1       0       0       0       0       0       0       0       0       0       0       
      +0       0
  7300 ;;Total ram usage:        1 bytes
  7301 ;; Hardware stack levels used: 1
  7302 ;; Hardware stack levels required when called: 6
  7303 ;; This function calls:
  7304 ;;		Nothing
  7305 ;; This function is called by:
  7306 ;;		_I2C1_Open
  7307 ;;		_I2C1_DO_TX
  7308 ;;		_I2C1_DO_RX
  7309 ;;		_I2C1_DO_TX_EMPTY
  7310 ;;		_I2C1_DO_ADDRESS_NACK
  7311 ;;		_I2C1_DO_RX_EMPTY
  7312 ;; This function uses a non-reentrant model
  7313 ;;
  7314                           
  7315                           
  7316                           ;psect for function _I2C1_CallbackReturnReset
  7317  07A1                     _I2C1_CallbackReturnReset:
  7318  07A1                     l3562:	
  7319                           ;incstack = 0
  7320                           ; Regs used in _I2C1_CallbackReturnReset: [wreg]
  7321                           
  7322                           
  7323                           ;mcc_generated_files/i2c1_master.c: 525: i2c1_operations_t I2C1_CallbackReturnReset(void
      +                           *funPtr);mcc_generated_files/i2c1_master.c: 526: {;mcc_generated_files/i2c1_master.c: 5
      +                          27:     return I2C1_RESET_LINK;
  7324  07A1  3005               	movlw	5
  7325  07A2                     l687:
  7326  07A2  0008               	return
  7327  07A3                     __end_of_I2C1_CallbackReturnReset:
  7328                           
  7329                           	psect	text50
  7330  07A3                     __ptext50:	
  7331 ;; *************** function _I2C1_CallbackReturnStop *****************
  7332 ;; Defined at:
  7333 ;;		line 520 in file "mcc_generated_files/i2c1_master.c"
  7334 ;; Parameters:    Size  Location     Type
  7335 ;;  funPtr          1    9[BANK0 ] PTR void 
  7336 ;;		 -> I2C1_ReadDataBlock@bufferBlock(3), I2C1_Write2ByteRegister@data(2), I2C1_Write1ByteRegister@data(1), I2C1_Read2B
      +yteRegister@returnValue(2), 
  7337 ;;		 -> NULL(0), I2C1_Read1ByteRegister@returnValue(1), 
  7338 ;; Auto vars:     Size  Location     Type
  7339 ;;		None
  7340 ;; Return value:  Size  Location     Type
  7341 ;;                  1    wreg      enum E360
  7342 ;; Registers used:
  7343 ;;		wreg
  7344 ;; Tracked objects:
  7345 ;;		On entry : 0/0
  7346 ;;		On exit  : 0/0
  7347 ;;		Unchanged: 0/0
  7348 ;; Data sizes:     COMMON   BANK0   BANK1   BANK2   BANK3   BANK4   BANK5   BANK6   BANK7   BANK8   BANK9  BANK10  BANK1
      +1  BANK12
  7349 ;;      Params:         0       1       0       0       0       0       0       0       0       0       0       0       
      +0       0
  7350 ;;      Locals:         0       0       0       0       0       0       0       0       0       0       0       0       
      +0       0
  7351 ;;      Temps:          0       0       0       0       0       0       0       0       0       0       0       0       
      +0       0
  7352 ;;      Totals:         0       1       0       0       0       0       0       0       0       0       0       0       
      +0       0
  7353 ;;Total ram usage:        1 bytes
  7354 ;; Hardware stack levels used: 1
  7355 ;; Hardware stack levels required when called: 6
  7356 ;; This function calls:
  7357 ;;		Nothing
  7358 ;; This function is called by:
  7359 ;;		_I2C1_Open
  7360 ;;		_I2C1_SetCallback
  7361 ;;		_I2C1_DO_TX
  7362 ;;		_I2C1_DO_RX
  7363 ;;		_I2C1_DO_TX_EMPTY
  7364 ;;		_I2C1_DO_ADDRESS_NACK
  7365 ;;		_I2C1_DO_RX_EMPTY
  7366 ;; This function uses a non-reentrant model
  7367 ;;
  7368                           
  7369                           
  7370                           ;psect for function _I2C1_CallbackReturnStop
  7371  07A3                     _I2C1_CallbackReturnStop:
  7372  07A3                     l3558:	
  7373                           ;incstack = 0
  7374                           ; Regs used in _I2C1_CallbackReturnStop: [wreg]
  7375                           
  7376                           
  7377                           ;mcc_generated_files/i2c1_master.c: 520: i2c1_operations_t I2C1_CallbackReturnStop(void 
      +                          *funPtr);mcc_generated_files/i2c1_master.c: 521: {;mcc_generated_files/i2c1_master.c: 52
      +                          2:     return I2C1_STOP;
  7378  07A3  3001               	movlw	1
  7379  07A4                     l684:
  7380  07A4  0008               	return
  7381  07A5                     __end_of_I2C1_CallbackReturnStop:
  7382                           
  7383                           	psect	text51
  7384  052D                     __ptext51:	
  7385 ;; *************** function _rdBlkRegCompleteHandler *****************
  7386 ;; Defined at:
  7387 ;;		line 170 in file "mcc_generated_files/examples/i2c1_master_example.c"
  7388 ;; Parameters:    Size  Location     Type
  7389 ;;  ptr             1    9[BANK0 ] PTR void 
  7390 ;;		 -> I2C1_ReadDataBlock@bufferBlock(3), I2C1_Write2ByteRegister@data(2), I2C1_Write1ByteRegister@data(1), I2C1_Read2B
      +yteRegister@returnValue(2), 
  7391 ;;		 -> NULL(0), I2C1_Read1ByteRegister@returnValue(1), 
  7392 ;; Auto vars:     Size  Location     Type
  7393 ;;		None
  7394 ;; Return value:  Size  Location     Type
  7395 ;;                  1    wreg      enum E360
  7396 ;; Registers used:
  7397 ;;		wreg, fsr1l, fsr1h, status,2, status,0, pclath, cstack
  7398 ;; Tracked objects:
  7399 ;;		On entry : 0/0
  7400 ;;		On exit  : 0/0
  7401 ;;		Unchanged: 0/0
  7402 ;; Data sizes:     COMMON   BANK0   BANK1   BANK2   BANK3   BANK4   BANK5   BANK6   BANK7   BANK8   BANK9  BANK10  BANK1
      +1  BANK12
  7403 ;;      Params:         0       1       0       0       0       0       0       0       0       0       0       0       
      +0       0
  7404 ;;      Locals:         0       0       0       0       0       0       0       0       0       0       0       0       
      +0       0
  7405 ;;      Temps:          0       0       0       0       0       0       0       0       0       0       0       0       
      +0       0
  7406 ;;      Totals:         0       1       0       0       0       0       0       0       0       0       0       0       
      +0       0
  7407 ;;Total ram usage:        1 bytes
  7408 ;; Hardware stack levels used: 1
  7409 ;; Hardware stack levels required when called: 8
  7410 ;; This function calls:
  7411 ;;		_I2C1_SetBuffer
  7412 ;;		_I2C1_SetDataCompleteCallback
  7413 ;; This function is called by:
  7414 ;;		_I2C1_ReadDataBlock
  7415 ;;		_I2C1_DO_TX
  7416 ;;		_I2C1_DO_RX
  7417 ;;		_I2C1_DO_TX_EMPTY
  7418 ;;		_I2C1_DO_ADDRESS_NACK
  7419 ;;		_I2C1_DO_RX_EMPTY
  7420 ;; This function uses a non-reentrant model
  7421 ;;
  7422                           
  7423                           
  7424                           ;psect for function _rdBlkRegCompleteHandler
  7425  052D                     _rdBlkRegCompleteHandler:
  7426  052D                     l3500:	
  7427                           ;incstack = 0
  7428                           ; Regs used in _rdBlkRegCompleteHandler: [wreg+fsr1l+fsr1h+status,2+status,0+pclath+csta
      +                          ck]
  7429                           
  7430                           
  7431                           ;mcc_generated_files/examples/i2c1_master_example.c: 170: static i2c1_operations_t rdBlk
      +                          RegCompleteHandler(void *ptr);mcc_generated_files/examples/i2c1_master_example.c: 171: {
      +                          ;mcc_generated_files/examples/i2c1_master_example.c: 172:     I2C1_SetBuffer(((i2c1_buff
      +                          er_t *)ptr)->data,((i2c1_buffer_t*)ptr)->len);
  7432  052D  0020               	movlb	0	; select bank0
  7433  052E  084A               	movf	rdBlkRegCompleteHandler@ptr,w
  7434  052F  0086               	movwf	6
  7435  0530  0187               	clrf	7
  7436  0531  3F40               	moviw [0]fsr1
  7437  0532  00C1               	movwf	I2C1_SetBuffer@bufferSize
  7438  0533  3F41               	moviw [1]fsr1
  7439  0534  00C2               	movwf	I2C1_SetBuffer@bufferSize+1
  7440  0535  084A               	movf	rdBlkRegCompleteHandler@ptr,w
  7441  0536  3E02               	addlw	2
  7442  0537  0086               	movwf	6
  7443  0538  0187               	clrf	7
  7444  0539  0801               	movf	1,w
  7445  053A  3186  262F  3185   	fcall	_I2C1_SetBuffer
  7446                           
  7447                           ;mcc_generated_files/examples/i2c1_master_example.c: 173:     I2C1_SetDataCompleteCallba
      +                          ck(((void*)0),((void*)0));
  7448  053D  3000               	movlw	0
  7449  053E  0020               	movlb	0	; select bank0
  7450  053F  00C6               	movwf	I2C1_SetDataCompleteCallback@cb
  7451  0540  00C7               	movwf	I2C1_SetDataCompleteCallback@cb+1
  7452  0541  01C8               	clrf	I2C1_SetDataCompleteCallback@ptr
  7453  0542  3186  2669  3185   	fcall	_I2C1_SetDataCompleteCallback
  7454  0545                     l3502:
  7455                           
  7456                           ;mcc_generated_files/examples/i2c1_master_example.c: 174:     return I2C1_RESTART_READ;
  7457  0545  3002               	movlw	2
  7458  0546                     l114:
  7459  0546  0008               	return
  7460  0547                     __end_of_rdBlkRegCompleteHandler:
  7461                           
  7462                           	psect	text52
  7463  05E3                     __ptext52:	
  7464 ;; *************** function _wr1RegCompleteHandler *****************
  7465 ;; Defined at:
  7466 ;;		line 156 in file "mcc_generated_files/examples/i2c1_master_example.c"
  7467 ;; Parameters:    Size  Location     Type
  7468 ;;  ptr             1    9[BANK0 ] PTR void 
  7469 ;;		 -> I2C1_ReadDataBlock@bufferBlock(3), I2C1_Write2ByteRegister@data(2), I2C1_Write1ByteRegister@data(1), I2C1_Read2B
      +yteRegister@returnValue(2), 
  7470 ;;		 -> NULL(0), I2C1_Read1ByteRegister@returnValue(1), 
  7471 ;; Auto vars:     Size  Location     Type
  7472 ;;		None
  7473 ;; Return value:  Size  Location     Type
  7474 ;;                  1    wreg      enum E360
  7475 ;; Registers used:
  7476 ;;		wreg, fsr1l, fsr1h, status,2, status,0, pclath, cstack
  7477 ;; Tracked objects:
  7478 ;;		On entry : 0/0
  7479 ;;		On exit  : 0/0
  7480 ;;		Unchanged: 0/0
  7481 ;; Data sizes:     COMMON   BANK0   BANK1   BANK2   BANK3   BANK4   BANK5   BANK6   BANK7   BANK8   BANK9  BANK10  BANK1
      +1  BANK12
  7482 ;;      Params:         0       1       0       0       0       0       0       0       0       0       0       0       
      +0       0
  7483 ;;      Locals:         0       0       0       0       0       0       0       0       0       0       0       0       
      +0       0
  7484 ;;      Temps:          0       0       0       0       0       0       0       0       0       0       0       0       
      +0       0
  7485 ;;      Totals:         0       1       0       0       0       0       0       0       0       0       0       0       
      +0       0
  7486 ;;Total ram usage:        1 bytes
  7487 ;; Hardware stack levels used: 1
  7488 ;; Hardware stack levels required when called: 8
  7489 ;; This function calls:
  7490 ;;		_I2C1_SetBuffer
  7491 ;;		_I2C1_SetDataCompleteCallback
  7492 ;; This function is called by:
  7493 ;;		_I2C1_Write1ByteRegister
  7494 ;;		_I2C1_DO_TX
  7495 ;;		_I2C1_DO_RX
  7496 ;;		_I2C1_DO_TX_EMPTY
  7497 ;;		_I2C1_DO_ADDRESS_NACK
  7498 ;;		_I2C1_DO_RX_EMPTY
  7499 ;; This function uses a non-reentrant model
  7500 ;;
  7501                           
  7502                           
  7503                           ;psect for function _wr1RegCompleteHandler
  7504  05E3                     _wr1RegCompleteHandler:
  7505  05E3                     l3484:	
  7506                           ;incstack = 0
  7507                           ; Regs used in _wr1RegCompleteHandler: [wreg+fsr1l+fsr1h+status,2+status,0+pclath+cstack
      +                          ]
  7508                           
  7509                           
  7510                           ;mcc_generated_files/examples/i2c1_master_example.c: 156: static i2c1_operations_t wr1Re
      +                          gCompleteHandler(void *ptr);mcc_generated_files/examples/i2c1_master_example.c: 157: {;m
      +                          cc_generated_files/examples/i2c1_master_example.c: 158:     I2C1_SetBuffer(ptr,1);
  7511  05E3  3001               	movlw	1
  7512  05E4  0020               	movlb	0	; select bank0
  7513  05E5  00C1               	movwf	I2C1_SetBuffer@bufferSize
  7514  05E6  3000               	movlw	0
  7515  05E7  00C2               	movwf	I2C1_SetBuffer@bufferSize+1
  7516  05E8  084A               	movf	wr1RegCompleteHandler@ptr,w
  7517  05E9  3186  262F  3185   	fcall	_I2C1_SetBuffer
  7518  05EC                     l3486:
  7519                           
  7520                           ;mcc_generated_files/examples/i2c1_master_example.c: 159:     I2C1_SetDataCompleteCallba
      +                          ck(((void*)0),((void*)0));
  7521  05EC  3000               	movlw	0
  7522  05ED  0020               	movlb	0	; select bank0
  7523  05EE  00C6               	movwf	I2C1_SetDataCompleteCallback@cb
  7524  05EF  00C7               	movwf	I2C1_SetDataCompleteCallback@cb+1
  7525  05F0  01C8               	clrf	I2C1_SetDataCompleteCallback@ptr
  7526  05F1  3186  2669  3185   	fcall	_I2C1_SetDataCompleteCallback
  7527  05F4                     l3488:
  7528                           
  7529                           ;mcc_generated_files/examples/i2c1_master_example.c: 160:     return I2C1_CONTINUE;
  7530  05F4  3004               	movlw	4
  7531  05F5                     l108:
  7532  05F5  0008               	return
  7533  05F6                     __end_of_wr1RegCompleteHandler:
  7534                           
  7535                           	psect	text53
  7536  05F6                     __ptext53:	
  7537 ;; *************** function _rd2RegCompleteHandler *****************
  7538 ;; Defined at:
  7539 ;;		line 149 in file "mcc_generated_files/examples/i2c1_master_example.c"
  7540 ;; Parameters:    Size  Location     Type
  7541 ;;  ptr             1    9[BANK0 ] PTR void 
  7542 ;;		 -> I2C1_ReadDataBlock@bufferBlock(3), I2C1_Write2ByteRegister@data(2), I2C1_Write1ByteRegister@data(1), I2C1_Read2B
      +yteRegister@returnValue(2), 
  7543 ;;		 -> NULL(0), I2C1_Read1ByteRegister@returnValue(1), 
  7544 ;; Auto vars:     Size  Location     Type
  7545 ;;		None
  7546 ;; Return value:  Size  Location     Type
  7547 ;;                  1    wreg      enum E360
  7548 ;; Registers used:
  7549 ;;		wreg, fsr1l, fsr1h, status,2, status,0, pclath, cstack
  7550 ;; Tracked objects:
  7551 ;;		On entry : 0/0
  7552 ;;		On exit  : 0/0
  7553 ;;		Unchanged: 0/0
  7554 ;; Data sizes:     COMMON   BANK0   BANK1   BANK2   BANK3   BANK4   BANK5   BANK6   BANK7   BANK8   BANK9  BANK10  BANK1
      +1  BANK12
  7555 ;;      Params:         0       1       0       0       0       0       0       0       0       0       0       0       
      +0       0
  7556 ;;      Locals:         0       0       0       0       0       0       0       0       0       0       0       0       
      +0       0
  7557 ;;      Temps:          0       0       0       0       0       0       0       0       0       0       0       0       
      +0       0
  7558 ;;      Totals:         0       1       0       0       0       0       0       0       0       0       0       0       
      +0       0
  7559 ;;Total ram usage:        1 bytes
  7560 ;; Hardware stack levels used: 1
  7561 ;; Hardware stack levels required when called: 8
  7562 ;; This function calls:
  7563 ;;		_I2C1_SetBuffer
  7564 ;;		_I2C1_SetDataCompleteCallback
  7565 ;; This function is called by:
  7566 ;;		_I2C1_Read2ByteRegister
  7567 ;;		_I2C1_DO_TX
  7568 ;;		_I2C1_DO_RX
  7569 ;;		_I2C1_DO_TX_EMPTY
  7570 ;;		_I2C1_DO_ADDRESS_NACK
  7571 ;;		_I2C1_DO_RX_EMPTY
  7572 ;; This function uses a non-reentrant model
  7573 ;;
  7574                           
  7575                           
  7576                           ;psect for function _rd2RegCompleteHandler
  7577  05F6                     _rd2RegCompleteHandler:
  7578  05F6                     l3476:	
  7579                           ;incstack = 0
  7580                           ; Regs used in _rd2RegCompleteHandler: [wreg+fsr1l+fsr1h+status,2+status,0+pclath+cstack
      +                          ]
  7581                           
  7582                           
  7583                           ;mcc_generated_files/examples/i2c1_master_example.c: 149: static i2c1_operations_t rd2Re
      +                          gCompleteHandler(void *ptr);mcc_generated_files/examples/i2c1_master_example.c: 150: {;m
      +                          cc_generated_files/examples/i2c1_master_example.c: 151:     I2C1_SetBuffer(ptr,2);
  7584  05F6  3002               	movlw	2
  7585  05F7  0020               	movlb	0	; select bank0
  7586  05F8  00C1               	movwf	I2C1_SetBuffer@bufferSize
  7587  05F9  3000               	movlw	0
  7588  05FA  00C2               	movwf	I2C1_SetBuffer@bufferSize+1
  7589  05FB  084A               	movf	rd2RegCompleteHandler@ptr,w
  7590  05FC  3186  262F  3185   	fcall	_I2C1_SetBuffer
  7591  05FF                     l3478:
  7592                           
  7593                           ;mcc_generated_files/examples/i2c1_master_example.c: 152:     I2C1_SetDataCompleteCallba
      +                          ck(((void*)0),((void*)0));
  7594  05FF  3000               	movlw	0
  7595  0600  0020               	movlb	0	; select bank0
  7596  0601  00C6               	movwf	I2C1_SetDataCompleteCallback@cb
  7597  0602  00C7               	movwf	I2C1_SetDataCompleteCallback@cb+1
  7598  0603  01C8               	clrf	I2C1_SetDataCompleteCallback@ptr
  7599  0604  3186  2669  3185   	fcall	_I2C1_SetDataCompleteCallback
  7600  0607                     l3480:
  7601                           
  7602                           ;mcc_generated_files/examples/i2c1_master_example.c: 153:     return I2C1_RESTART_READ;
  7603  0607  3002               	movlw	2
  7604  0608                     l105:
  7605  0608  0008               	return
  7606  0609                     __end_of_rd2RegCompleteHandler:
  7607                           
  7608                           	psect	text54
  7609  0609                     __ptext54:	
  7610 ;; *************** function _rd1RegCompleteHandler *****************
  7611 ;; Defined at:
  7612 ;;		line 142 in file "mcc_generated_files/examples/i2c1_master_example.c"
  7613 ;; Parameters:    Size  Location     Type
  7614 ;;  ptr             1    9[BANK0 ] PTR void 
  7615 ;;		 -> I2C1_ReadDataBlock@bufferBlock(3), I2C1_Write2ByteRegister@data(2), I2C1_Write1ByteRegister@data(1), I2C1_Read2B
      +yteRegister@returnValue(2), 
  7616 ;;		 -> NULL(0), I2C1_Read1ByteRegister@returnValue(1), 
  7617 ;; Auto vars:     Size  Location     Type
  7618 ;;		None
  7619 ;; Return value:  Size  Location     Type
  7620 ;;                  1    wreg      enum E360
  7621 ;; Registers used:
  7622 ;;		wreg, fsr1l, fsr1h, status,2, status,0, pclath, cstack
  7623 ;; Tracked objects:
  7624 ;;		On entry : 0/0
  7625 ;;		On exit  : 0/0
  7626 ;;		Unchanged: 0/0
  7627 ;; Data sizes:     COMMON   BANK0   BANK1   BANK2   BANK3   BANK4   BANK5   BANK6   BANK7   BANK8   BANK9  BANK10  BANK1
      +1  BANK12
  7628 ;;      Params:         0       1       0       0       0       0       0       0       0       0       0       0       
      +0       0
  7629 ;;      Locals:         0       0       0       0       0       0       0       0       0       0       0       0       
      +0       0
  7630 ;;      Temps:          0       0       0       0       0       0       0       0       0       0       0       0       
      +0       0
  7631 ;;      Totals:         0       1       0       0       0       0       0       0       0       0       0       0       
      +0       0
  7632 ;;Total ram usage:        1 bytes
  7633 ;; Hardware stack levels used: 1
  7634 ;; Hardware stack levels required when called: 8
  7635 ;; This function calls:
  7636 ;;		_I2C1_SetBuffer
  7637 ;;		_I2C1_SetDataCompleteCallback
  7638 ;; This function is called by:
  7639 ;;		_I2C1_Read1ByteRegister
  7640 ;;		_I2C1_DO_TX
  7641 ;;		_I2C1_DO_RX
  7642 ;;		_I2C1_DO_TX_EMPTY
  7643 ;;		_I2C1_DO_ADDRESS_NACK
  7644 ;;		_I2C1_DO_RX_EMPTY
  7645 ;; This function uses a non-reentrant model
  7646 ;;
  7647                           
  7648                           
  7649                           ;psect for function _rd1RegCompleteHandler
  7650  0609                     _rd1RegCompleteHandler:
  7651  0609                     l3468:	
  7652                           ;incstack = 0
  7653                           ; Regs used in _rd1RegCompleteHandler: [wreg+fsr1l+fsr1h+status,2+status,0+pclath+cstack
      +                          ]
  7654                           
  7655                           
  7656                           ;mcc_generated_files/examples/i2c1_master_example.c: 142: static i2c1_operations_t rd1Re
      +                          gCompleteHandler(void *ptr);mcc_generated_files/examples/i2c1_master_example.c: 143: {;m
      +                          cc_generated_files/examples/i2c1_master_example.c: 144:     I2C1_SetBuffer(ptr,1);
  7657  0609  3001               	movlw	1
  7658  060A  0020               	movlb	0	; select bank0
  7659  060B  00C1               	movwf	I2C1_SetBuffer@bufferSize
  7660  060C  3000               	movlw	0
  7661  060D  00C2               	movwf	I2C1_SetBuffer@bufferSize+1
  7662  060E  084A               	movf	rd1RegCompleteHandler@ptr,w
  7663  060F  3186  262F  3186   	fcall	_I2C1_SetBuffer
  7664  0612                     l3470:
  7665                           
  7666                           ;mcc_generated_files/examples/i2c1_master_example.c: 145:     I2C1_SetDataCompleteCallba
      +                          ck(((void*)0),((void*)0));
  7667  0612  3000               	movlw	0
  7668  0613  0020               	movlb	0	; select bank0
  7669  0614  00C6               	movwf	I2C1_SetDataCompleteCallback@cb
  7670  0615  00C7               	movwf	I2C1_SetDataCompleteCallback@cb+1
  7671  0616  01C8               	clrf	I2C1_SetDataCompleteCallback@ptr
  7672  0617  3186  2669  3186   	fcall	_I2C1_SetDataCompleteCallback
  7673  061A                     l3472:
  7674                           
  7675                           ;mcc_generated_files/examples/i2c1_master_example.c: 146:     return I2C1_RESTART_READ;
  7676  061A  3002               	movlw	2
  7677  061B                     l102:
  7678  061B  0008               	return
  7679  061C                     __end_of_rd1RegCompleteHandler:
  7680                           
  7681                           	psect	text55
  7682  061C                     __ptext55:	
  7683 ;; *************** function _wr2RegCompleteHandler *****************
  7684 ;; Defined at:
  7685 ;;		line 163 in file "mcc_generated_files/examples/i2c1_master_example.c"
  7686 ;; Parameters:    Size  Location     Type
  7687 ;;  ptr             1    9[BANK0 ] PTR void 
  7688 ;;		 -> I2C1_ReadDataBlock@bufferBlock(3), I2C1_Write2ByteRegister@data(2), I2C1_Write1ByteRegister@data(1), I2C1_Read2B
      +yteRegister@returnValue(2), 
  7689 ;;		 -> NULL(0), I2C1_Read1ByteRegister@returnValue(1), 
  7690 ;; Auto vars:     Size  Location     Type
  7691 ;;		None
  7692 ;; Return value:  Size  Location     Type
  7693 ;;                  1    wreg      enum E360
  7694 ;; Registers used:
  7695 ;;		wreg, fsr1l, fsr1h, status,2, status,0, pclath, cstack
  7696 ;; Tracked objects:
  7697 ;;		On entry : 0/0
  7698 ;;		On exit  : 0/0
  7699 ;;		Unchanged: 0/0
  7700 ;; Data sizes:     COMMON   BANK0   BANK1   BANK2   BANK3   BANK4   BANK5   BANK6   BANK7   BANK8   BANK9  BANK10  BANK1
      +1  BANK12
  7701 ;;      Params:         0       1       0       0       0       0       0       0       0       0       0       0       
      +0       0
  7702 ;;      Locals:         0       0       0       0       0       0       0       0       0       0       0       0       
      +0       0
  7703 ;;      Temps:          0       0       0       0       0       0       0       0       0       0       0       0       
      +0       0
  7704 ;;      Totals:         0       1       0       0       0       0       0       0       0       0       0       0       
      +0       0
  7705 ;;Total ram usage:        1 bytes
  7706 ;; Hardware stack levels used: 1
  7707 ;; Hardware stack levels required when called: 8
  7708 ;; This function calls:
  7709 ;;		_I2C1_SetBuffer
  7710 ;;		_I2C1_SetDataCompleteCallback
  7711 ;; This function is called by:
  7712 ;;		_I2C1_Write2ByteRegister
  7713 ;;		_I2C1_DO_TX
  7714 ;;		_I2C1_DO_RX
  7715 ;;		_I2C1_DO_TX_EMPTY
  7716 ;;		_I2C1_DO_ADDRESS_NACK
  7717 ;;		_I2C1_DO_RX_EMPTY
  7718 ;; This function uses a non-reentrant model
  7719 ;;
  7720                           
  7721                           
  7722                           ;psect for function _wr2RegCompleteHandler
  7723  061C                     _wr2RegCompleteHandler:
  7724  061C                     l3492:	
  7725                           ;incstack = 0
  7726                           ; Regs used in _wr2RegCompleteHandler: [wreg+fsr1l+fsr1h+status,2+status,0+pclath+cstack
      +                          ]
  7727                           
  7728                           
  7729                           ;mcc_generated_files/examples/i2c1_master_example.c: 163: static i2c1_operations_t wr2Re
      +                          gCompleteHandler(void *ptr);mcc_generated_files/examples/i2c1_master_example.c: 164: {;m
      +                          cc_generated_files/examples/i2c1_master_example.c: 165:     I2C1_SetBuffer(ptr,2);
  7730  061C  3002               	movlw	2
  7731  061D  0020               	movlb	0	; select bank0
  7732  061E  00C1               	movwf	I2C1_SetBuffer@bufferSize
  7733  061F  3000               	movlw	0
  7734  0620  00C2               	movwf	I2C1_SetBuffer@bufferSize+1
  7735  0621  084A               	movf	wr2RegCompleteHandler@ptr,w
  7736  0622  3186  262F  3186   	fcall	_I2C1_SetBuffer
  7737  0625                     l3494:
  7738                           
  7739                           ;mcc_generated_files/examples/i2c1_master_example.c: 166:     I2C1_SetDataCompleteCallba
      +                          ck(((void*)0),((void*)0));
  7740  0625  3000               	movlw	0
  7741  0626  0020               	movlb	0	; select bank0
  7742  0627  00C6               	movwf	I2C1_SetDataCompleteCallback@cb
  7743  0628  00C7               	movwf	I2C1_SetDataCompleteCallback@cb+1
  7744  0629  01C8               	clrf	I2C1_SetDataCompleteCallback@ptr
  7745  062A  3186  2669  3186   	fcall	_I2C1_SetDataCompleteCallback
  7746  062D                     l3496:
  7747                           
  7748                           ;mcc_generated_files/examples/i2c1_master_example.c: 167:     return I2C1_CONTINUE;
  7749  062D  3004               	movlw	4
  7750  062E                     l111:
  7751  062E  0008               	return
  7752  062F                     __end_of_wr2RegCompleteHandler:
  7753                           
  7754                           	psect	text56
  7755  0669                     __ptext56:	
  7756 ;; *************** function _I2C1_SetDataCompleteCallback *****************
  7757 ;; Defined at:
  7758 ;;		line 273 in file "mcc_generated_files/i2c1_master.c"
  7759 ;; Parameters:    Size  Location     Type
  7760 ;;  cb              2    5[BANK0 ] PTR FTN(PTR void ,)enum 
  7761 ;;		 -> Absolute function(1), rdBlkRegCompleteHandler(1), wr2RegCompleteHandler(1), wr1RegCompleteHandler(1), 
  7762 ;;		 -> rd2RegCompleteHandler(1), rd1RegCompleteHandler(1), 
  7763 ;;  ptr             1    7[BANK0 ] PTR void 
  7764 ;;		 -> I2C1_ReadDataBlock@bufferBlock(3), I2C1_Write2ByteRegister@data(2), I2C1_Write1ByteRegister@data(1), I2C1_Read2B
      +yteRegister@returnValue(2), 
  7765 ;;		 -> NULL(0), I2C1_Read1ByteRegister@returnValue(1), 
  7766 ;; Auto vars:     Size  Location     Type
  7767 ;;		None
  7768 ;; Return value:  Size  Location     Type
  7769 ;;                  1    wreg      void 
  7770 ;; Registers used:
  7771 ;;		wreg, fsr1l, fsr1h, status,2, status,0, pclath, cstack
  7772 ;; Tracked objects:
  7773 ;;		On entry : 0/0
  7774 ;;		On exit  : 0/0
  7775 ;;		Unchanged: 0/0
  7776 ;; Data sizes:     COMMON   BANK0   BANK1   BANK2   BANK3   BANK4   BANK5   BANK6   BANK7   BANK8   BANK9  BANK10  BANK1
      +1  BANK12
  7777 ;;      Params:         0       3       0       0       0       0       0       0       0       0       0       0       
      +0       0
  7778 ;;      Locals:         0       0       0       0       0       0       0       0       0       0       0       0       
      +0       0
  7779 ;;      Temps:          0       1       0       0       0       0       0       0       0       0       0       0       
      +0       0
  7780 ;;      Totals:         0       4       0       0       0       0       0       0       0       0       0       0       
      +0       0
  7781 ;;Total ram usage:        4 bytes
  7782 ;; Hardware stack levels used: 1
  7783 ;; Hardware stack levels required when called: 7
  7784 ;; This function calls:
  7785 ;;		_I2C1_SetCallback
  7786 ;; This function is called by:
  7787 ;;		_I2C1_Read1ByteRegister
  7788 ;;		_I2C1_Write1ByteRegister
  7789 ;;		_rd1RegCompleteHandler
  7790 ;;		_rd2RegCompleteHandler
  7791 ;;		_wr1RegCompleteHandler
  7792 ;;		_wr2RegCompleteHandler
  7793 ;;		_rdBlkRegCompleteHandler
  7794 ;;		_I2C1_Read2ByteRegister
  7795 ;;		_I2C1_Write2ByteRegister
  7796 ;;		_I2C1_ReadDataBlock
  7797 ;; This function uses a non-reentrant model
  7798 ;;
  7799                           
  7800                           
  7801                           ;psect for function _I2C1_SetDataCompleteCallback
  7802  0669                     _I2C1_SetDataCompleteCallback:
  7803  0669                     l3460:	
  7804                           ;incstack = 0
  7805                           ; Regs used in _I2C1_SetDataCompleteCallback: [wreg+fsr1l+fsr1h+status,2+status,0+pclath
      +                          +cstack]
  7806                           
  7807                           
  7808                           ;mcc_generated_files/i2c1_master.c: 273: void I2C1_SetDataCompleteCallback(i2c1_callback
      +                          _t cb, void *ptr);mcc_generated_files/i2c1_master.c: 274: {;mcc_generated_files/i2c1_mas
      +                          ter.c: 275:     I2C1_SetCallback(I2C1_DATA_COMPLETE, cb, ptr);
  7809  0669  0020               	movlb	0	; select bank0
  7810  066A  0847               	movf	I2C1_SetDataCompleteCallback@cb+1,w
  7811  066B  00C2               	movwf	I2C1_SetCallback@cb+1
  7812  066C  0846               	movf	I2C1_SetDataCompleteCallback@cb,w
  7813  066D  00C1               	movwf	I2C1_SetCallback@cb
  7814  066E  0848               	movf	I2C1_SetDataCompleteCallback@ptr,w
  7815  066F  00C9               	movwf	??_I2C1_SetDataCompleteCallback
  7816  0670  0849               	movf	??_I2C1_SetDataCompleteCallback,w
  7817  0671  00C3               	movwf	I2C1_SetCallback@ptr
  7818  0672  3000               	movlw	0
  7819  0673  3184  2438  3186   	fcall	_I2C1_SetCallback
  7820  0676                     l558:
  7821  0676  0008               	return
  7822  0677                     __end_of_I2C1_SetDataCompleteCallback:
  7823                           
  7824                           	psect	text57
  7825  0438                     __ptext57:	
  7826 ;; *************** function _I2C1_SetCallback *****************
  7827 ;; Defined at:
  7828 ;;		line 298 in file "mcc_generated_files/i2c1_master.c"
  7829 ;; Parameters:    Size  Location     Type
  7830 ;;  idx             1    wreg     enum E3027
  7831 ;;  cb              2    0[BANK0 ] PTR FTN(PTR void ,)enum 
  7832 ;;		 -> Absolute function(1), rdBlkRegCompleteHandler(1), wr2RegCompleteHandler(1), wr1RegCompleteHandler(1), 
  7833 ;;		 -> rd2RegCompleteHandler(1), rd1RegCompleteHandler(1), 
  7834 ;;  ptr             1    2[BANK0 ] PTR void 
  7835 ;;		 -> I2C1_ReadDataBlock@bufferBlock(3), I2C1_Write2ByteRegister@data(2), I2C1_Write1ByteRegister@data(1), I2C1_Read2B
      +yteRegister@returnValue(2), 
  7836 ;;		 -> NULL(0), I2C1_Read1ByteRegister@returnValue(1), 
  7837 ;; Auto vars:     Size  Location     Type
  7838 ;;  idx             1    4[BANK0 ] enum E3027
  7839 ;; Return value:  Size  Location     Type
  7840 ;;                  1    wreg      void 
  7841 ;; Registers used:
  7842 ;;		wreg, fsr1l, fsr1h, status,2, status,0
  7843 ;; Tracked objects:
  7844 ;;		On entry : 0/0
  7845 ;;		On exit  : 0/0
  7846 ;;		Unchanged: 0/0
  7847 ;; Data sizes:     COMMON   BANK0   BANK1   BANK2   BANK3   BANK4   BANK5   BANK6   BANK7   BANK8   BANK9  BANK10  BANK1
      +1  BANK12
  7848 ;;      Params:         0       3       0       0       0       0       0       0       0       0       0       0       
      +0       0
  7849 ;;      Locals:         0       1       0       0       0       0       0       0       0       0       0       0       
      +0       0
  7850 ;;      Temps:          0       1       0       0       0       0       0       0       0       0       0       0       
      +0       0
  7851 ;;      Totals:         0       5       0       0       0       0       0       0       0       0       0       0       
      +0       0
  7852 ;;Total ram usage:        5 bytes
  7853 ;; Hardware stack levels used: 1
  7854 ;; Hardware stack levels required when called: 6
  7855 ;; This function calls:
  7856 ;;		Nothing
  7857 ;; This function is called by:
  7858 ;;		_I2C1_SetDataCompleteCallback
  7859 ;;		_I2C1_SetAddressNackCallback
  7860 ;;		_I2C1_SetWriteCollisionCallback
  7861 ;;		_I2C1_SetDataNackCallback
  7862 ;;		_I2C1_SetTimeoutCallback
  7863 ;; This function uses a non-reentrant model
  7864 ;;
  7865                           
  7866                           
  7867                           ;psect for function _I2C1_SetCallback
  7868  0438                     _I2C1_SetCallback:
  7869                           
  7870                           ;incstack = 0
  7871                           ; Regs used in _I2C1_SetCallback: [wreg+fsr1l+fsr1h+status,2+status,0]
  7872                           ;I2C1_SetCallback@idx stored from wreg
  7873  0438  0020               	movlb	0	; select bank0
  7874  0439  00C5               	movwf	I2C1_SetCallback@idx
  7875  043A                     l3454:
  7876                           
  7877                           ;mcc_generated_files/i2c1_master.c: 298: static void I2C1_SetCallback(i2c1_callbackIndex
      +                          _t idx, i2c1_callback_t cb, void *ptr);mcc_generated_files/i2c1_master.c: 299: {;mcc_gen
      +                          erated_files/i2c1_master.c: 300:     if(cb)
  7878  043A  0841               	movf	I2C1_SetCallback@cb,w
  7879  043B  0442               	iorwf	I2C1_SetCallback@cb+1,w
  7880  043C  1903               	btfsc	3,2
  7881  043D  2C3F               	goto	u1241
  7882  043E  2C40               	goto	u1240
  7883  043F                     u1241:
  7884  043F  2C51               	goto	l3458
  7885  0440                     u1240:
  7886  0440                     l3456:
  7887                           
  7888                           ;mcc_generated_files/i2c1_master.c: 301:     {;mcc_generated_files/i2c1_master.c: 302:  
      +                                 I2C1_Status.callbackTable[idx] = cb;
  7889  0440  3545               	lslf	I2C1_SetCallback@idx,w
  7890  0441  3E20               	addlw	(low (_I2C1_Status| 0))& (0+255)
  7891  0442  0086               	movwf	6
  7892  0443  0187               	clrf	7
  7893  0444  0841               	movf	I2C1_SetCallback@cb,w
  7894  0445  3FC0               	movwi [0]fsr1
  7895  0446  0842               	movf	I2C1_SetCallback@cb+1,w
  7896  0447  3FC1               	movwi [1]fsr1
  7897                           
  7898                           ;mcc_generated_files/i2c1_master.c: 303:         I2C1_Status.callbackPayload[idx] = ptr;
  7899  0448  0843               	movf	I2C1_SetCallback@ptr,w
  7900  0449  00C4               	movwf	??_I2C1_SetCallback
  7901  044A  0845               	movf	I2C1_SetCallback@idx,w
  7902  044B  3E2C               	addlw	(low ((_I2C1_Status| 0+12)))& (0+255)
  7903  044C  0086               	movwf	6
  7904  044D  0187               	clrf	7
  7905  044E  0844               	movf	??_I2C1_SetCallback,w
  7906  044F  0081               	movwf	1
  7907                           
  7908                           ;mcc_generated_files/i2c1_master.c: 304:     }
  7909  0450  2C5E               	goto	l575
  7910  0451                     l3458:
  7911                           
  7912                           ;mcc_generated_files/i2c1_master.c: 306:     {;mcc_generated_files/i2c1_master.c: 307:  
      +                                 I2C1_Status.callbackTable[idx] = I2C1_CallbackReturnStop;
  7913  0451  3545               	lslf	I2C1_SetCallback@idx,w
  7914  0452  3E20               	addlw	(low (_I2C1_Status| 0))& (0+255)
  7915  0453  0086               	movwf	6
  7916  0454  0187               	clrf	7
  7917  0455  30A3               	movlw	low _I2C1_CallbackReturnStop
  7918  0456  3FC0               	movwi [0]fsr1
  7919  0457  3007               	movlw	high _I2C1_CallbackReturnStop
  7920  0458  3FC1               	movwi [1]fsr1
  7921                           
  7922                           ;mcc_generated_files/i2c1_master.c: 308:         I2C1_Status.callbackPayload[idx] = ((vo
      +                          id*)0);
  7923  0459  0845               	movf	I2C1_SetCallback@idx,w
  7924  045A  3E2C               	addlw	(low ((_I2C1_Status| 0+12)))& (0+255)
  7925  045B  0086               	movwf	6
  7926  045C  0187               	clrf	7
  7927  045D  0181               	clrf	1
  7928  045E                     l575:
  7929  045E  0008               	return
  7930  045F                     __end_of_I2C1_SetCallback:
  7931                           
  7932                           	psect	text58
  7933  062F                     __ptext58:	
  7934 ;; *************** function _I2C1_SetBuffer *****************
  7935 ;; Defined at:
  7936 ;;		line 263 in file "mcc_generated_files/i2c1_master.c"
  7937 ;; Parameters:    Size  Location     Type
  7938 ;;  buffer          1    wreg     PTR void 
  7939 ;;		 -> I2C1_ReadDataBlock@reg(1), I2C1_ReadDataBlock@bufferBlock(3), I2C1_Write2ByteRegister@reg(1), I2C1_Write2ByteReg
      +ister@data(2), 
  7940 ;;		 -> I2C1_Write1ByteRegister@reg(1), I2C1_Write1ByteRegister@data(1), I2C1_Read2ByteRegister@reg(1), I2C1_Read2ByteRe
      +gister@returnValue(2), 
  7941 ;;		 -> NULL(0), I2C1_Read1ByteRegister@reg(1), I2C1_Read1ByteRegister@returnValue(1), 
  7942 ;;  bufferSize      2    0[BANK0 ] unsigned int 
  7943 ;; Auto vars:     Size  Location     Type
  7944 ;;  buffer          1    3[BANK0 ] PTR void 
  7945 ;;		 -> I2C1_ReadDataBlock@reg(1), I2C1_ReadDataBlock@bufferBlock(3), I2C1_Write2ByteRegister@reg(1), I2C1_Write2ByteReg
      +ister@data(2), 
  7946 ;;		 -> I2C1_Write1ByteRegister@reg(1), I2C1_Write1ByteRegister@data(1), I2C1_Read2ByteRegister@reg(1), I2C1_Read2ByteRe
      +gister@returnValue(2), 
  7947 ;;		 -> NULL(0), I2C1_Read1ByteRegister@reg(1), I2C1_Read1ByteRegister@returnValue(1), 
  7948 ;; Return value:  Size  Location     Type
  7949 ;;                  1    wreg      void 
  7950 ;; Registers used:
  7951 ;;		wreg
  7952 ;; Tracked objects:
  7953 ;;		On entry : 0/0
  7954 ;;		On exit  : 0/0
  7955 ;;		Unchanged: 0/0
  7956 ;; Data sizes:     COMMON   BANK0   BANK1   BANK2   BANK3   BANK4   BANK5   BANK6   BANK7   BANK8   BANK9  BANK10  BANK1
      +1  BANK12
  7957 ;;      Params:         0       2       0       0       0       0       0       0       0       0       0       0       
      +0       0
  7958 ;;      Locals:         0       1       0       0       0       0       0       0       0       0       0       0       
      +0       0
  7959 ;;      Temps:          0       1       0       0       0       0       0       0       0       0       0       0       
      +0       0
  7960 ;;      Totals:         0       4       0       0       0       0       0       0       0       0       0       0       
      +0       0
  7961 ;;Total ram usage:        4 bytes
  7962 ;; Hardware stack levels used: 1
  7963 ;; Hardware stack levels required when called: 6
  7964 ;; This function calls:
  7965 ;;		Nothing
  7966 ;; This function is called by:
  7967 ;;		_I2C1_Read1ByteRegister
  7968 ;;		_I2C1_Write1ByteRegister
  7969 ;;		_rd1RegCompleteHandler
  7970 ;;		_rd2RegCompleteHandler
  7971 ;;		_wr1RegCompleteHandler
  7972 ;;		_wr2RegCompleteHandler
  7973 ;;		_rdBlkRegCompleteHandler
  7974 ;;		_I2C1_Read2ByteRegister
  7975 ;;		_I2C1_Write2ByteRegister
  7976 ;;		_I2C1_WriteNBytes
  7977 ;;		_I2C1_ReadNBytes
  7978 ;;		_I2C1_ReadDataBlock
  7979 ;; This function uses a non-reentrant model
  7980 ;;
  7981                           
  7982                           
  7983                           ;psect for function _I2C1_SetBuffer
  7984  062F                     _I2C1_SetBuffer:
  7985                           
  7986                           ;incstack = 0
  7987                           ; Regs used in _I2C1_SetBuffer: [wreg]
  7988                           ;I2C1_SetBuffer@buffer stored from wreg
  7989  062F  0020               	movlb	0	; select bank0
  7990  0630  00C4               	movwf	I2C1_SetBuffer@buffer
  7991  0631                     l2584:
  7992                           
  7993                           ;mcc_generated_files/i2c1_master.c: 263: void I2C1_SetBuffer(void *buffer, size_t buffer
      +                          Size);mcc_generated_files/i2c1_master.c: 264: {;mcc_generated_files/i2c1_master.c: 265: 
      +                              if(I2C1_Status.bufferFree)
  7994  0631  1DBC               	btfss	_I2C1_Status+28,3
  7995  0632  2E34               	goto	u681
  7996  0633  2E35               	goto	u680
  7997  0634                     u681:
  7998  0634  2E3E               	goto	l555
  7999  0635                     u680:
  8000  0635                     l2586:
  8001                           
  8002                           ;mcc_generated_files/i2c1_master.c: 266:     {;mcc_generated_files/i2c1_master.c: 267:  
      +                                 I2C1_Status.data_ptr = buffer;
  8003  0635  0844               	movf	I2C1_SetBuffer@buffer,w
  8004  0636  00C3               	movwf	??_I2C1_SetBuffer
  8005  0637  0843               	movf	??_I2C1_SetBuffer,w
  8006  0638  00B7               	movwf	low ((_I2C1_Status| 0+23))
  8007                           
  8008                           ;mcc_generated_files/i2c1_master.c: 268:         I2C1_Status.data_length = bufferSize;
  8009  0639  0842               	movf	I2C1_SetBuffer@bufferSize+1,w
  8010  063A  00B9               	movwf	_I2C1_Status+25
  8011  063B  0841               	movf	I2C1_SetBuffer@bufferSize,w
  8012  063C  00B8               	movwf	_I2C1_Status+24
  8013  063D                     l2588:
  8014                           
  8015                           ;mcc_generated_files/i2c1_master.c: 269:         I2C1_Status.bufferFree = 0;
  8016  063D  11BC               	bcf	_I2C1_Status+28,3
  8017  063E                     l555:
  8018  063E  0008               	return
  8019  063F                     __end_of_I2C1_SetBuffer:
  8020                           
  8021                           	psect	text59
  8022  078C                     __ptext59:	
  8023 ;; *************** function _I2C1_MasterStop *****************
  8024 ;; Defined at:
  8025 ;;		line 593 in file "mcc_generated_files/i2c1_master.c"
  8026 ;; Parameters:    Size  Location     Type
  8027 ;;		None
  8028 ;; Auto vars:     Size  Location     Type
  8029 ;;		None
  8030 ;; Return value:  Size  Location     Type
  8031 ;;                  1    wreg      void 
  8032 ;; Registers used:
  8033 ;;		None
  8034 ;; Tracked objects:
  8035 ;;		On entry : 0/0
  8036 ;;		On exit  : 0/0
  8037 ;;		Unchanged: 0/0
  8038 ;; Data sizes:     COMMON   BANK0   BANK1   BANK2   BANK3   BANK4   BANK5   BANK6   BANK7   BANK8   BANK9  BANK10  BANK1
      +1  BANK12
  8039 ;;      Params:         0       0       0       0       0       0       0       0       0       0       0       0       
      +0       0
  8040 ;;      Locals:         0       0       0       0       0       0       0       0       0       0       0       0       
      +0       0
  8041 ;;      Temps:          0       0       0       0       0       0       0       0       0       0       0       0       
      +0       0
  8042 ;;      Totals:         0       0       0       0       0       0       0       0       0       0       0       0       
      +0       0
  8043 ;;Total ram usage:        0 bytes
  8044 ;; Hardware stack levels used: 1
  8045 ;; Hardware stack levels required when called: 6
  8046 ;; This function calls:
  8047 ;;		Nothing
  8048 ;; This function is called by:
  8049 ;;		_I2C1_DO_SEND_STOP
  8050 ;; This function uses a non-reentrant model
  8051 ;;
  8052                           
  8053                           
  8054                           ;psect for function _I2C1_MasterStop
  8055  078C                     _I2C1_MasterStop:
  8056  078C                     l3464:	
  8057                           ;incstack = 0
  8058                           ; Regs used in _I2C1_MasterStop: []
  8059                           
  8060                           
  8061                           ;mcc_generated_files/i2c1_master.c: 595:     SSP1CON2bits.PEN = 1;
  8062  078C  0024               	movlb	4	; select bank4
  8063  078D  1516               	bsf	22,2	;volatile
  8064  078E                     l721:
  8065  078E  0008               	return
  8066  078F                     __end_of_I2C1_MasterStop:
  8067                           
  8068                           	psect	text60
  8069  078F                     __ptext60:	
  8070 ;; *************** function _I2C1_MasterEnableRestart *****************
  8071 ;; Defined at:
  8072 ;;		line 573 in file "mcc_generated_files/i2c1_master.c"
  8073 ;; Parameters:    Size  Location     Type
  8074 ;;		None
  8075 ;; Auto vars:     Size  Location     Type
  8076 ;;		None
  8077 ;; Return value:  Size  Location     Type
  8078 ;;                  1    wreg      void 
  8079 ;; Registers used:
  8080 ;;		None
  8081 ;; Tracked objects:
  8082 ;;		On entry : 0/0
  8083 ;;		On exit  : 0/0
  8084 ;;		Unchanged: 0/0
  8085 ;; Data sizes:     COMMON   BANK0   BANK1   BANK2   BANK3   BANK4   BANK5   BANK6   BANK7   BANK8   BANK9  BANK10  BANK1
      +1  BANK12
  8086 ;;      Params:         0       0       0       0       0       0       0       0       0       0       0       0       
      +0       0
  8087 ;;      Locals:         0       0       0       0       0       0       0       0       0       0       0       0       
      +0       0
  8088 ;;      Temps:          0       0       0       0       0       0       0       0       0       0       0       0       
      +0       0
  8089 ;;      Totals:         0       0       0       0       0       0       0       0       0       0       0       0       
      +0       0
  8090 ;;Total ram usage:        0 bytes
  8091 ;; Hardware stack levels used: 1
  8092 ;; Hardware stack levels required when called: 6
  8093 ;; This function calls:
  8094 ;;		Nothing
  8095 ;; This function is called by:
  8096 ;;		_I2C1_DO_SEND_RESTART_READ
  8097 ;;		_I2C1_DO_SEND_RESTART_WRITE
  8098 ;;		_I2C1_DO_SEND_RESTART
  8099 ;;		_I2C1_DO_RX_EMPTY
  8100 ;; This function uses a non-reentrant model
  8101 ;;
  8102                           
  8103                           
  8104                           ;psect for function _I2C1_MasterEnableRestart
  8105  078F                     _I2C1_MasterEnableRestart:
  8106  078F                     l3462:	
  8107                           ;incstack = 0
  8108                           ; Regs used in _I2C1_MasterEnableRestart: []
  8109                           
  8110                           
  8111                           ;mcc_generated_files/i2c1_master.c: 575:     SSP1CON2bits.RSEN = 1;
  8112  078F  0024               	movlb	4	; select bank4
  8113  0790  1496               	bsf	22,1	;volatile
  8114  0791                     l709:
  8115  0791  0008               	return
  8116  0792                     __end_of_I2C1_MasterEnableRestart:
  8117                           
  8118                           	psect	text61
  8119  0792                     __ptext61:	
  8120 ;; *************** function _I2C1_MasterStart *****************
  8121 ;; Defined at:
  8122 ;;		line 588 in file "mcc_generated_files/i2c1_master.c"
  8123 ;; Parameters:    Size  Location     Type
  8124 ;;		None
  8125 ;; Auto vars:     Size  Location     Type
  8126 ;;		None
  8127 ;; Return value:  Size  Location     Type
  8128 ;;                  1    wreg      void 
  8129 ;; Registers used:
  8130 ;;		None
  8131 ;; Tracked objects:
  8132 ;;		On entry : 0/0
  8133 ;;		On exit  : 0/0
  8134 ;;		Unchanged: 0/0
  8135 ;; Data sizes:     COMMON   BANK0   BANK1   BANK2   BANK3   BANK4   BANK5   BANK6   BANK7   BANK8   BANK9  BANK10  BANK1
      +1  BANK12
  8136 ;;      Params:         0       0       0       0       0       0       0       0       0       0       0       0       
      +0       0
  8137 ;;      Locals:         0       0       0       0       0       0       0       0       0       0       0       0       
      +0       0
  8138 ;;      Temps:          0       0       0       0       0       0       0       0       0       0       0       0       
      +0       0
  8139 ;;      Totals:         0       0       0       0       0       0       0       0       0       0       0       0       
      +0       0
  8140 ;;Total ram usage:        0 bytes
  8141 ;; Hardware stack levels used: 1
  8142 ;; Hardware stack levels required when called: 6
  8143 ;; This function calls:
  8144 ;;		Nothing
  8145 ;; This function is called by:
  8146 ;;		_I2C1_MasterOperation
  8147 ;; This function uses a non-reentrant model
  8148 ;;
  8149                           
  8150                           
  8151                           ;psect for function _I2C1_MasterStart
  8152  0792                     _I2C1_MasterStart:
  8153  0792                     l3734:	
  8154                           ;incstack = 0
  8155                           ; Regs used in _I2C1_MasterStart: []
  8156                           
  8157                           
  8158                           ;mcc_generated_files/i2c1_master.c: 590:     SSP1CON2bits.SEN = 1;
  8159  0792  0024               	movlb	4	; select bank4
  8160  0793  1416               	bsf	22,0	;volatile
  8161  0794                     l718:
  8162  0794  0008               	return
  8163  0795                     __end_of_I2C1_MasterStart:
  8164                           
  8165                           	psect	text62
  8166  04D9                     __ptext62:	
  8167 ;; *************** function _I2C1_Close *****************
  8168 ;; Defined at:
  8169 ;;		line 209 in file "mcc_generated_files/i2c1_master.c"
  8170 ;; Parameters:    Size  Location     Type
  8171 ;;		None
  8172 ;; Auto vars:     Size  Location     Type
  8173 ;;  returnValue     1    1[BANK0 ] enum E355
  8174 ;; Return value:  Size  Location     Type
  8175 ;;                  1    wreg      enum E355
  8176 ;; Registers used:
  8177 ;;		wreg, status,2, status,0, pclath, cstack
  8178 ;; Tracked objects:
  8179 ;;		On entry : 0/0
  8180 ;;		On exit  : 0/0
  8181 ;;		Unchanged: 0/0
  8182 ;; Data sizes:     COMMON   BANK0   BANK1   BANK2   BANK3   BANK4   BANK5   BANK6   BANK7   BANK8   BANK9  BANK10  BANK1
      +1  BANK12
  8183 ;;      Params:         0       0       0       0       0       0       0       0       0       0       0       0       
      +0       0
  8184 ;;      Locals:         0       1       0       0       0       0       0       0       0       0       0       0       
      +0       0
  8185 ;;      Temps:          0       1       0       0       0       0       0       0       0       0       0       0       
      +0       0
  8186 ;;      Totals:         0       2       0       0       0       0       0       0       0       0       0       0       
      +0       0
  8187 ;;Total ram usage:        2 bytes
  8188 ;; Hardware stack levels used: 1
  8189 ;; Hardware stack levels required when called: 7
  8190 ;; This function calls:
  8191 ;;		_I2C1_MasterClearIrq
  8192 ;;		_I2C1_MasterClose
  8193 ;;		_I2C1_MasterDisableIrq
  8194 ;; This function is called by:
  8195 ;;		_I2C1_Read1ByteRegister
  8196 ;;		_I2C1_Write1ByteRegister
  8197 ;;		_I2C1_Read2ByteRegister
  8198 ;;		_I2C1_Write2ByteRegister
  8199 ;;		_I2C1_WriteNBytes
  8200 ;;		_I2C1_ReadNBytes
  8201 ;;		_I2C1_ReadDataBlock
  8202 ;; This function uses a non-reentrant model
  8203 ;;
  8204                           
  8205                           
  8206                           ;psect for function _I2C1_Close
  8207  04D9                     _I2C1_Close:
  8208  04D9                     l3824:	
  8209                           ;incstack = 0
  8210                           ; Regs used in _I2C1_Close: [wreg+status,2+status,0+pclath+cstack]
  8211                           
  8212                           
  8213                           ;mcc_generated_files/i2c1_master.c: 211:     i2c1_error_t returnValue = I2C1_BUSY;
  8214  04D9  0020               	movlb	0	; select bank0
  8215  04DA  01C2               	clrf	I2C1_Close@returnValue
  8216  04DB  0AC2               	incf	I2C1_Close@returnValue,f
  8217                           
  8218                           ;mcc_generated_files/i2c1_master.c: 212:     if(!I2C1_Status.busy)
  8219  04DC  18BC               	btfsc	_I2C1_Status+28,1
  8220  04DD  2CDF               	goto	u1361
  8221  04DE  2CE0               	goto	u1360
  8222  04DF                     u1361:
  8223  04DF  2CF3               	goto	l3838
  8224  04E0                     u1360:
  8225  04E0                     l3826:
  8226                           
  8227                           ;mcc_generated_files/i2c1_master.c: 213:     {;mcc_generated_files/i2c1_master.c: 214:  
      +                                 I2C1_Status.inUse = 0;
  8228  04E0  113C               	bcf	_I2C1_Status+28,2
  8229  04E1                     l3828:
  8230                           
  8231                           ;mcc_generated_files/i2c1_master.c: 215:         I2C1_Status.address = 0xff;
  8232  04E1  30FF               	movlw	255
  8233  04E2  00C1               	movwf	??_I2C1_Close
  8234  04E3  0841               	movf	??_I2C1_Close,w
  8235  04E4  00B6               	movwf	_I2C1_Status+22
  8236  04E5                     l3830:
  8237                           
  8238                           ;mcc_generated_files/i2c1_master.c: 216:         I2C1_MasterClearIrq();
  8239  04E5  3187  279B  3184   	fcall	_I2C1_MasterClearIrq
  8240  04E8                     l3832:
  8241                           
  8242                           ;mcc_generated_files/i2c1_master.c: 217:         I2C1_MasterDisableIrq();
  8243  04E8  3187  2795  3184   	fcall	_I2C1_MasterDisableIrq
  8244  04EB                     l3834:
  8245                           
  8246                           ;mcc_generated_files/i2c1_master.c: 218:         I2C1_MasterClose();
  8247  04EB  3187  2798  3184   	fcall	_I2C1_MasterClose
  8248  04EE                     l3836:
  8249                           
  8250                           ;mcc_generated_files/i2c1_master.c: 219:         returnValue = I2C1_Status.error;
  8251  04EE  0020               	movlb	0	; select bank0
  8252  04EF  083B               	movf	_I2C1_Status+27,w
  8253  04F0  00C1               	movwf	??_I2C1_Close
  8254  04F1  0841               	movf	??_I2C1_Close,w
  8255  04F2  00C2               	movwf	I2C1_Close@returnValue
  8256  04F3                     l3838:
  8257                           
  8258                           ;mcc_generated_files/i2c1_master.c: 221:     return returnValue;
  8259  04F3  0842               	movf	I2C1_Close@returnValue,w
  8260  04F4                     l536:
  8261  04F4  0008               	return
  8262  04F5                     __end_of_I2C1_Close:
  8263                           
  8264                           	psect	text63
  8265  0795                     __ptext63:	
  8266 ;; *************** function _I2C1_MasterDisableIrq *****************
  8267 ;; Defined at:
  8268 ;;		line 635 in file "mcc_generated_files/i2c1_master.c"
  8269 ;; Parameters:    Size  Location     Type
  8270 ;;		None
  8271 ;; Auto vars:     Size  Location     Type
  8272 ;;		None
  8273 ;; Return value:  Size  Location     Type
  8274 ;;                  1    wreg      void 
  8275 ;; Registers used:
  8276 ;;		None
  8277 ;; Tracked objects:
  8278 ;;		On entry : 0/0
  8279 ;;		On exit  : 0/0
  8280 ;;		Unchanged: 0/0
  8281 ;; Data sizes:     COMMON   BANK0   BANK1   BANK2   BANK3   BANK4   BANK5   BANK6   BANK7   BANK8   BANK9  BANK10  BANK1
      +1  BANK12
  8282 ;;      Params:         0       0       0       0       0       0       0       0       0       0       0       0       
      +0       0
  8283 ;;      Locals:         0       0       0       0       0       0       0       0       0       0       0       0       
      +0       0
  8284 ;;      Temps:          0       0       0       0       0       0       0       0       0       0       0       0       
      +0       0
  8285 ;;      Totals:         0       0       0       0       0       0       0       0       0       0       0       0       
      +0       0
  8286 ;;Total ram usage:        0 bytes
  8287 ;; Hardware stack levels used: 1
  8288 ;; Hardware stack levels required when called: 6
  8289 ;; This function calls:
  8290 ;;		Nothing
  8291 ;; This function is called by:
  8292 ;;		_I2C1_Close
  8293 ;;		_I2C1_SetTimeOut
  8294 ;; This function uses a non-reentrant model
  8295 ;;
  8296                           
  8297                           
  8298                           ;psect for function _I2C1_MasterDisableIrq
  8299  0795                     _I2C1_MasterDisableIrq:
  8300  0795                     l3760:	
  8301                           ;incstack = 0
  8302                           ; Regs used in _I2C1_MasterDisableIrq: []
  8303                           
  8304                           
  8305                           ;mcc_generated_files/i2c1_master.c: 637:     PIE1bits.SSP1IE = 0;
  8306  0795  0021               	movlb	1	; select bank1
  8307  0796  1191               	bcf	17,3	;volatile
  8308  0797                     l745:
  8309  0797  0008               	return
  8310  0798                     __end_of_I2C1_MasterDisableIrq:
  8311                           
  8312                           	psect	text64
  8313  0798                     __ptext64:	
  8314 ;; *************** function _I2C1_MasterClose *****************
  8315 ;; Defined at:
  8316 ;;		line 557 in file "mcc_generated_files/i2c1_master.c"
  8317 ;; Parameters:    Size  Location     Type
  8318 ;;		None
  8319 ;; Auto vars:     Size  Location     Type
  8320 ;;		None
  8321 ;; Return value:  Size  Location     Type
  8322 ;;                  1    wreg      void 
  8323 ;; Registers used:
  8324 ;;		None
  8325 ;; Tracked objects:
  8326 ;;		On entry : 0/0
  8327 ;;		On exit  : 0/0
  8328 ;;		Unchanged: 0/0
  8329 ;; Data sizes:     COMMON   BANK0   BANK1   BANK2   BANK3   BANK4   BANK5   BANK6   BANK7   BANK8   BANK9  BANK10  BANK1
      +1  BANK12
  8330 ;;      Params:         0       0       0       0       0       0       0       0       0       0       0       0       
      +0       0
  8331 ;;      Locals:         0       0       0       0       0       0       0       0       0       0       0       0       
      +0       0
  8332 ;;      Temps:          0       0       0       0       0       0       0       0       0       0       0       0       
      +0       0
  8333 ;;      Totals:         0       0       0       0       0       0       0       0       0       0       0       0       
      +0       0
  8334 ;;Total ram usage:        0 bytes
  8335 ;; Hardware stack levels used: 1
  8336 ;; Hardware stack levels required when called: 6
  8337 ;; This function calls:
  8338 ;;		Nothing
  8339 ;; This function is called by:
  8340 ;;		_I2C1_Close
  8341 ;; This function uses a non-reentrant model
  8342 ;;
  8343                           
  8344                           
  8345                           ;psect for function _I2C1_MasterClose
  8346  0798                     _I2C1_MasterClose:
  8347  0798                     l3762:	
  8348                           ;incstack = 0
  8349                           ; Regs used in _I2C1_MasterClose: []
  8350                           
  8351                           
  8352                           ;mcc_generated_files/i2c1_master.c: 560:     SSP1CON1bits.SSPEN = 0;
  8353  0798  0024               	movlb	4	; select bank4
  8354  0799  1295               	bcf	21,5	;volatile
  8355  079A                     l700:
  8356  079A  0008               	return
  8357  079B                     __end_of_I2C1_MasterClose:
  8358                           
  8359                           	psect	text65
  8360  079B                     __ptext65:	
  8361 ;; *************** function _I2C1_MasterClearIrq *****************
  8362 ;; Defined at:
  8363 ;;		line 640 in file "mcc_generated_files/i2c1_master.c"
  8364 ;; Parameters:    Size  Location     Type
  8365 ;;		None
  8366 ;; Auto vars:     Size  Location     Type
  8367 ;;		None
  8368 ;; Return value:  Size  Location     Type
  8369 ;;                  1    wreg      void 
  8370 ;; Registers used:
  8371 ;;		None
  8372 ;; Tracked objects:
  8373 ;;		On entry : 0/0
  8374 ;;		On exit  : 0/0
  8375 ;;		Unchanged: 0/0
  8376 ;; Data sizes:     COMMON   BANK0   BANK1   BANK2   BANK3   BANK4   BANK5   BANK6   BANK7   BANK8   BANK9  BANK10  BANK1
      +1  BANK12
  8377 ;;      Params:         0       0       0       0       0       0       0       0       0       0       0       0       
      +0       0
  8378 ;;      Locals:         0       0       0       0       0       0       0       0       0       0       0       0       
      +0       0
  8379 ;;      Temps:          0       0       0       0       0       0       0       0       0       0       0       0       
      +0       0
  8380 ;;      Totals:         0       0       0       0       0       0       0       0       0       0       0       0       
      +0       0
  8381 ;;Total ram usage:        0 bytes
  8382 ;; Hardware stack levels used: 1
  8383 ;; Hardware stack levels required when called: 6
  8384 ;; This function calls:
  8385 ;;		Nothing
  8386 ;; This function is called by:
  8387 ;;		_I2C1_Open
  8388 ;;		_I2C1_Close
  8389 ;;		_I2C1_MasterFsm
  8390 ;; This function uses a non-reentrant model
  8391 ;;
  8392                           
  8393                           
  8394                           ;psect for function _I2C1_MasterClearIrq
  8395  079B                     _I2C1_MasterClearIrq:
  8396  079B                     l3566:	
  8397                           ;incstack = 0
  8398                           ; Regs used in _I2C1_MasterClearIrq: []
  8399                           
  8400                           
  8401                           ;mcc_generated_files/i2c1_master.c: 642:     PIR1bits.SSP1IF = 0;
  8402  079B  0020               	movlb	0	; select bank0
  8403  079C  1191               	bcf	17,3	;volatile
  8404  079D                     l748:
  8405  079D  0008               	return
  8406  079E                     __end_of_I2C1_MasterClearIrq:
  8407                           
  8408                           	psect	text66
  8409  04F5                     __ptext66:	
  8410 ;; *************** function _EPWM2_LoadDutyValue *****************
  8411 ;; Defined at:
  8412 ;;		line 90 in file "mcc_generated_files/epwm2.c"
  8413 ;; Parameters:    Size  Location     Type
  8414 ;;  dutyValue       2    0[BANK0 ] unsigned short 
  8415 ;; Auto vars:     Size  Location     Type
  8416 ;;		None
  8417 ;; Return value:  Size  Location     Type
  8418 ;;                  1    wreg      void 
  8419 ;; Registers used:
  8420 ;;		wreg, status,2, status,0
  8421 ;; Tracked objects:
  8422 ;;		On entry : 0/0
  8423 ;;		On exit  : 0/0
  8424 ;;		Unchanged: 0/0
  8425 ;; Data sizes:     COMMON   BANK0   BANK1   BANK2   BANK3   BANK4   BANK5   BANK6   BANK7   BANK8   BANK9  BANK10  BANK1
      +1  BANK12
  8426 ;;      Params:         0       2       0       0       0       0       0       0       0       0       0       0       
      +0       0
  8427 ;;      Locals:         0       0       0       0       0       0       0       0       0       0       0       0       
      +0       0
  8428 ;;      Temps:          0       2       0       0       0       0       0       0       0       0       0       0       
      +0       0
  8429 ;;      Totals:         0       4       0       0       0       0       0       0       0       0       0       0       
      +0       0
  8430 ;;Total ram usage:        4 bytes
  8431 ;; Hardware stack levels used: 1
  8432 ;; Hardware stack levels required when called: 6
  8433 ;; This function calls:
  8434 ;;		Nothing
  8435 ;; This function is called by:
  8436 ;;		_main
  8437 ;; This function uses a non-reentrant model
  8438 ;;
  8439                           
  8440                           
  8441                           ;psect for function _EPWM2_LoadDutyValue
  8442  04F5                     _EPWM2_LoadDutyValue:
  8443  04F5                     l3186:	
  8444                           ;incstack = 0
  8445                           ; Regs used in _EPWM2_LoadDutyValue: [wreg+status,2+status,0]
  8446                           
  8447                           
  8448                           ;mcc_generated_files/epwm2.c: 90: void EPWM2_LoadDutyValue(uint16_t dutyValue);mcc_gener
      +                          ated_files/epwm2.c: 91: {;mcc_generated_files/epwm2.c: 93:     CCPR2L = ((dutyValue & 0x
      +                          03FC)>>2);
  8449  04F5  0020               	movlb	0	; select bank0
  8450  04F6  0842               	movf	EPWM2_LoadDutyValue@dutyValue+1,w
  8451  04F7  00C4               	movwf	??_EPWM2_LoadDutyValue+1
  8452  04F8  0841               	movf	EPWM2_LoadDutyValue@dutyValue,w
  8453  04F9  00C3               	movwf	??_EPWM2_LoadDutyValue
  8454  04FA  36C4               	lsrf	??_EPWM2_LoadDutyValue+1,f
  8455  04FB  0CC3               	rrf	??_EPWM2_LoadDutyValue,f
  8456  04FC  36C4               	lsrf	??_EPWM2_LoadDutyValue+1,f
  8457  04FD  0CC3               	rrf	??_EPWM2_LoadDutyValue,f
  8458  04FE  0843               	movf	??_EPWM2_LoadDutyValue,w
  8459  04FF  0025               	movlb	5	; select bank5
  8460  0500  0098               	movwf	24	;volatile
  8461                           
  8462                           ;mcc_generated_files/epwm2.c: 96:     CCP2CON = ((uint8_t)(CCP2CON & 0xCF) | ((dutyValue
      +                           & 0x0003)<<4));
  8463  0501  0020               	movlb	0	; select bank0
  8464  0502  0841               	movf	EPWM2_LoadDutyValue@dutyValue,w
  8465  0503  3903               	andlw	3
  8466  0504  00C3               	movwf	??_EPWM2_LoadDutyValue
  8467  0505  3004               	movlw	4
  8468  0506                     u985:
  8469  0506  35C3               	lslf	??_EPWM2_LoadDutyValue,f
  8470  0507  0B89               	decfsz	9,f
  8471  0508  2D06               	goto	u985
  8472  0509  0025               	movlb	5	; select bank5
  8473  050A  081A               	movf	26,w	;volatile
  8474  050B  39CF               	andlw	207
  8475  050C  0020               	movlb	0	; select bank0
  8476  050D  0443               	iorwf	??_EPWM2_LoadDutyValue,w
  8477  050E  0025               	movlb	5	; select bank5
  8478  050F  009A               	movwf	26	;volatile
  8479  0510                     l201:
  8480  0510  0008               	return
  8481  0511                     __end_of_EPWM2_LoadDutyValue:
  8482                           
  8483                           	psect	text67
  8484  0511                     __ptext67:	
  8485 ;; *************** function _EPWM1_LoadDutyValue *****************
  8486 ;; Defined at:
  8487 ;;		line 90 in file "mcc_generated_files/epwm1.c"
  8488 ;; Parameters:    Size  Location     Type
  8489 ;;  dutyValue       2    0[BANK0 ] unsigned short 
  8490 ;; Auto vars:     Size  Location     Type
  8491 ;;		None
  8492 ;; Return value:  Size  Location     Type
  8493 ;;                  1    wreg      void 
  8494 ;; Registers used:
  8495 ;;		wreg, status,2, status,0
  8496 ;; Tracked objects:
  8497 ;;		On entry : 0/0
  8498 ;;		On exit  : 0/0
  8499 ;;		Unchanged: 0/0
  8500 ;; Data sizes:     COMMON   BANK0   BANK1   BANK2   BANK3   BANK4   BANK5   BANK6   BANK7   BANK8   BANK9  BANK10  BANK1
      +1  BANK12
  8501 ;;      Params:         0       2       0       0       0       0       0       0       0       0       0       0       
      +0       0
  8502 ;;      Locals:         0       0       0       0       0       0       0       0       0       0       0       0       
      +0       0
  8503 ;;      Temps:          0       2       0       0       0       0       0       0       0       0       0       0       
      +0       0
  8504 ;;      Totals:         0       4       0       0       0       0       0       0       0       0       0       0       
      +0       0
  8505 ;;Total ram usage:        4 bytes
  8506 ;; Hardware stack levels used: 1
  8507 ;; Hardware stack levels required when called: 6
  8508 ;; This function calls:
  8509 ;;		Nothing
  8510 ;; This function is called by:
  8511 ;;		_main
  8512 ;; This function uses a non-reentrant model
  8513 ;;
  8514                           
  8515                           
  8516                           ;psect for function _EPWM1_LoadDutyValue
  8517  0511                     _EPWM1_LoadDutyValue:
  8518  0511                     l3188:	
  8519                           ;incstack = 0
  8520                           ; Regs used in _EPWM1_LoadDutyValue: [wreg+status,2+status,0]
  8521                           
  8522                           
  8523                           ;mcc_generated_files/epwm1.c: 90: void EPWM1_LoadDutyValue(uint16_t dutyValue);mcc_gener
      +                          ated_files/epwm1.c: 91: {;mcc_generated_files/epwm1.c: 93:     CCPR1L = ((dutyValue & 0x
      +                          03FC)>>2);
  8524  0511  0020               	movlb	0	; select bank0
  8525  0512  0842               	movf	EPWM1_LoadDutyValue@dutyValue+1,w
  8526  0513  00C4               	movwf	??_EPWM1_LoadDutyValue+1
  8527  0514  0841               	movf	EPWM1_LoadDutyValue@dutyValue,w
  8528  0515  00C3               	movwf	??_EPWM1_LoadDutyValue
  8529  0516  36C4               	lsrf	??_EPWM1_LoadDutyValue+1,f
  8530  0517  0CC3               	rrf	??_EPWM1_LoadDutyValue,f
  8531  0518  36C4               	lsrf	??_EPWM1_LoadDutyValue+1,f
  8532  0519  0CC3               	rrf	??_EPWM1_LoadDutyValue,f
  8533  051A  0843               	movf	??_EPWM1_LoadDutyValue,w
  8534  051B  0025               	movlb	5	; select bank5
  8535  051C  0091               	movwf	17	;volatile
  8536                           
  8537                           ;mcc_generated_files/epwm1.c: 96:     CCP1CON = ((uint8_t)(CCP1CON & 0xCF) | ((dutyValue
      +                           & 0x0003)<<4));
  8538  051D  0020               	movlb	0	; select bank0
  8539  051E  0841               	movf	EPWM1_LoadDutyValue@dutyValue,w
  8540  051F  3903               	andlw	3
  8541  0520  00C3               	movwf	??_EPWM1_LoadDutyValue
  8542  0521  3004               	movlw	4
  8543  0522                     u995:
  8544  0522  35C3               	lslf	??_EPWM1_LoadDutyValue,f
  8545  0523  0B89               	decfsz	9,f
  8546  0524  2D22               	goto	u995
  8547  0525  0025               	movlb	5	; select bank5
  8548  0526  0813               	movf	19,w	;volatile
  8549  0527  39CF               	andlw	207
  8550  0528  0020               	movlb	0	; select bank0
  8551  0529  0443               	iorwf	??_EPWM1_LoadDutyValue,w
  8552  052A  0025               	movlb	5	; select bank5
  8553  052B  0093               	movwf	19	;volatile
  8554  052C                     l221:
  8555  052C  0008               	return
  8556  052D                     __end_of_EPWM1_LoadDutyValue:
  8557                           
  8558                           	psect	text68
  8559  0547                     __ptext68:	
  8560 ;; *************** function _DELAY_milliseconds *****************
  8561 ;; Defined at:
  8562 ;;		line 38 in file "mcc_generated_files/delay.c"
  8563 ;; Parameters:    Size  Location     Type
  8564 ;;  milliseconds    2    0[BANK0 ] unsigned short 
  8565 ;; Auto vars:     Size  Location     Type
  8566 ;;		None
  8567 ;; Return value:  Size  Location     Type
  8568 ;;                  1    wreg      void 
  8569 ;; Registers used:
  8570 ;;		wreg, status,2, status,0
  8571 ;; Tracked objects:
  8572 ;;		On entry : 0/0
  8573 ;;		On exit  : 0/0
  8574 ;;		Unchanged: 0/0
  8575 ;; Data sizes:     COMMON   BANK0   BANK1   BANK2   BANK3   BANK4   BANK5   BANK6   BANK7   BANK8   BANK9  BANK10  BANK1
      +1  BANK12
  8576 ;;      Params:         0       2       0       0       0       0       0       0       0       0       0       0       
      +0       0
  8577 ;;      Locals:         0       0       0       0       0       0       0       0       0       0       0       0       
      +0       0
  8578 ;;      Temps:          0       1       0       0       0       0       0       0       0       0       0       0       
      +0       0
  8579 ;;      Totals:         0       3       0       0       0       0       0       0       0       0       0       0       
      +0       0
  8580 ;;Total ram usage:        3 bytes
  8581 ;; Hardware stack levels used: 1
  8582 ;; Hardware stack levels required when called: 6
  8583 ;; This function calls:
  8584 ;;		Nothing
  8585 ;; This function is called by:
  8586 ;;		_main
  8587 ;;		_DELAY_MsExample
  8588 ;; This function uses a non-reentrant model
  8589 ;;
  8590                           
  8591                           
  8592                           ;psect for function _DELAY_milliseconds
  8593  0547                     _DELAY_milliseconds:
  8594  0547                     l3148:	
  8595                           ;incstack = 0
  8596                           ; Regs used in _DELAY_milliseconds: [wreg+status,2+status,0]
  8597                           
  8598                           
  8599                           ;mcc_generated_files/delay.c: 39:     while(milliseconds--){
  8600  0547  2D51               	goto	l3152
  8601  0548                     l3150:
  8602                           
  8603                           ;mcc_generated_files/delay.c: 40:         _delay((unsigned long)((1)*(32000000/4000.0)))
      +                          ;
  8604  0548  300B               	movlw	11
  8605  0549  0020               	movlb	0	; select bank0
  8606  054A  00C3               	movwf	??_DELAY_milliseconds
  8607  054B  3062               	movlw	98
  8608  054C                     u1567:
  8609  054C  0B89               	decfsz	9,f
  8610  054D  2D4C               	goto	u1567
  8611  054E  0BC3               	decfsz	??_DELAY_milliseconds,f
  8612  054F  2D4C               	goto	u1567
  8613  0550  0000               	nop
  8614  0551                     l3152:
  8615                           
  8616                           ;mcc_generated_files/delay.c: 39:     while(milliseconds--){
  8617  0551  3001               	movlw	1
  8618  0552  0020               	movlb	0	; select bank0
  8619  0553  02C1               	subwf	DELAY_milliseconds@milliseconds,f
  8620  0554  3000               	movlw	0
  8621  0555  3BC2               	subwfb	DELAY_milliseconds@milliseconds+1,f
  8622  0556  0A41               	incf	DELAY_milliseconds@milliseconds,w
  8623  0557  1D03               	skipz
  8624  0558  2D5D               	goto	u931
  8625  0559  0A42               	incf	DELAY_milliseconds@milliseconds+1,w
  8626  055A  1D03               	btfss	3,2
  8627  055B  2D5D               	goto	u931
  8628  055C  2D5E               	goto	u930
  8629  055D                     u931:
  8630  055D  2D48               	goto	l3150
  8631  055E                     u930:
  8632  055E                     l122:
  8633  055E  0008               	return
  8634  055F                     __end_of_DELAY_milliseconds:
  8635                           
  8636                           	psect	intentry
  8637  0004                     __pintentry:	
  8638 ;; *************** function _INTERRUPT_InterruptManager *****************
  8639 ;; Defined at:
  8640 ;;		line 52 in file "mcc_generated_files/interrupt_manager.c"
  8641 ;; Parameters:    Size  Location     Type
  8642 ;;		None
  8643 ;; Auto vars:     Size  Location     Type
  8644 ;;		None
  8645 ;; Return value:  Size  Location     Type
  8646 ;;                  1    wreg      void 
  8647 ;; Registers used:
  8648 ;;		wreg, status,2, status,0, pclath, cstack
  8649 ;; Tracked objects:
  8650 ;;		On entry : 0/0
  8651 ;;		On exit  : 0/0
  8652 ;;		Unchanged: 0/0
  8653 ;; Data sizes:     COMMON   BANK0   BANK1   BANK2   BANK3   BANK4   BANK5   BANK6   BANK7   BANK8   BANK9  BANK10  BANK1
      +1  BANK12
  8654 ;;      Params:         0       0       0       0       0       0       0       0       0       0       0       0       
      +0       0
  8655 ;;      Locals:         0       0       0       0       0       0       0       0       0       0       0       0       
      +0       0
  8656 ;;      Temps:          0       0       0       0       0       0       0       0       0       0       0       0       
      +0       0
  8657 ;;      Totals:         0       0       0       0       0       0       0       0       0       0       0       0       
      +0       0
  8658 ;;Total ram usage:        0 bytes
  8659 ;; Hardware stack levels used: 1
  8660 ;; Hardware stack levels required when called: 5
  8661 ;; This function calls:
  8662 ;;		_INT_ISR
  8663 ;;		_PIN_MANAGER_IOC
  8664 ;;		_TMR4_ISR
  8665 ;; This function is called by:
  8666 ;;		Interrupt level 1
  8667 ;; This function uses a non-reentrant model
  8668 ;;
  8669                           
  8670  0004                     _INTERRUPT_InterruptManager:
  8671                           
  8672                           ;incstack = 0
  8673  0004  147E               	bsf	int$flags,0	;set compiler interrupt flag (level 1)
  8674                           
  8675                           ; Regs used in _INTERRUPT_InterruptManager: [wreg+status,2+status,0+pclath+cstack]
  8676  0005  3180               	pagesel	$
  8677  0006                     i1l3282:
  8678                           
  8679                           ;mcc_generated_files/interrupt_manager.c: 55:     if(INTCONbits.INTE == 1 && INTCONbits.
      +                          INTF == 1)
  8680  0006  1E0B               	btfss	11,4	;volatile
  8681  0007  2809               	goto	u113_21
  8682  0008  280A               	goto	u113_20
  8683  0009                     u113_21:
  8684  0009  2812               	goto	i1l238
  8685  000A                     u113_20:
  8686  000A                     i1l3284:
  8687  000A  1C8B               	btfss	11,1	;volatile
  8688  000B  280D               	goto	u114_21
  8689  000C  280E               	goto	u114_20
  8690  000D                     u114_21:
  8691  000D  2812               	goto	i1l238
  8692  000E                     u114_20:
  8693  000E                     i1l3286:
  8694                           
  8695                           ;mcc_generated_files/interrupt_manager.c: 56:     {;mcc_generated_files/interrupt_manage
      +                          r.c: 57:         INT_ISR();
  8696  000E  3187  276A  3180   	fcall	_INT_ISR
  8697                           
  8698                           ;mcc_generated_files/interrupt_manager.c: 58:     }
  8699  0011  2830               	goto	i1l246
  8700  0012                     i1l238:	
  8701                           ;mcc_generated_files/interrupt_manager.c: 59:     else if(INTCONbits.IOCIE == 1 && INTCO
      +                          Nbits.IOCIF == 1)
  8702                           
  8703  0012  1D8B               	btfss	11,3	;volatile
  8704  0013  2815               	goto	u115_21
  8705  0014  2816               	goto	u115_20
  8706  0015                     u115_21:
  8707  0015  281E               	goto	i1l240
  8708  0016                     u115_20:
  8709  0016                     i1l3288:
  8710  0016  1C0B               	btfss	11,0	;volatile
  8711  0017  2819               	goto	u116_21
  8712  0018  281A               	goto	u116_20
  8713  0019                     u116_21:
  8714  0019  281E               	goto	i1l240
  8715  001A                     u116_20:
  8716  001A                     i1l3290:
  8717                           
  8718                           ;mcc_generated_files/interrupt_manager.c: 60:     {;mcc_generated_files/interrupt_manage
      +                          r.c: 61:         PIN_MANAGER_IOC();
  8719  001A  3186  26EE  3180   	fcall	_PIN_MANAGER_IOC
  8720                           
  8721                           ;mcc_generated_files/interrupt_manager.c: 62:     }
  8722  001D  2830               	goto	i1l246
  8723  001E                     i1l240:	
  8724                           ;mcc_generated_files/interrupt_manager.c: 63:     else if(INTCONbits.PEIE == 1)
  8725                           
  8726  001E  1F0B               	btfss	11,6	;volatile
  8727  001F  2821               	goto	u117_21
  8728  0020  2822               	goto	u117_20
  8729  0021                     u117_21:
  8730  0021  2830               	goto	i1l241
  8731  0022                     u117_20:
  8732  0022                     i1l3292:
  8733                           
  8734                           ;mcc_generated_files/interrupt_manager.c: 64:     {;mcc_generated_files/interrupt_manage
      +                          r.c: 65:         if(PIE3bits.TMR4IE == 1 && PIR3bits.TMR4IF == 1)
  8735  0022  0021               	movlb	1	; select bank1
  8736  0023  1C93               	btfss	19,1	;volatile
  8737  0024  2826               	goto	u118_21
  8738  0025  2827               	goto	u118_20
  8739  0026                     u118_21:
  8740  0026  2830               	goto	i1l241
  8741  0027                     u118_20:
  8742  0027                     i1l3294:
  8743  0027  0020               	movlb	0	; select bank0
  8744  0028  1C93               	btfss	19,1	;volatile
  8745  0029  282B               	goto	u119_21
  8746  002A  282C               	goto	u119_20
  8747  002B                     u119_21:
  8748  002B  2830               	goto	i1l241
  8749  002C                     u119_20:
  8750  002C                     i1l3296:
  8751                           
  8752                           ;mcc_generated_files/interrupt_manager.c: 66:         {;mcc_generated_files/interrupt_ma
      +                          nager.c: 67:             TMR4_ISR();
  8753  002C  3185  25BA  3180   	fcall	_TMR4_ISR
  8754                           
  8755                           ;mcc_generated_files/interrupt_manager.c: 68:         }
  8756  002F  2830               	goto	i1l246
  8757  0030                     i1l241:
  8758  0030                     i1l246:
  8759  0030  107E               	bcf	int$flags,0	;clear compiler interrupt flag (level 1)
  8760  0031  0009               	retfie
  8761  0032                     __end_of_INTERRUPT_InterruptManager:
  8762                           
  8763                           	psect	text70
  8764  05BA                     __ptext70:	
  8765 ;; *************** function _TMR4_ISR *****************
  8766 ;; Defined at:
  8767 ;;		line 119 in file "mcc_generated_files/tmr4.c"
  8768 ;; Parameters:    Size  Location     Type
  8769 ;;		None
  8770 ;; Auto vars:     Size  Location     Type
  8771 ;;		None
  8772 ;; Return value:  Size  Location     Type
  8773 ;;                  1    wreg      void 
  8774 ;; Registers used:
  8775 ;;		wreg, status,2, status,0, pclath, cstack
  8776 ;; Tracked objects:
  8777 ;;		On entry : 0/0
  8778 ;;		On exit  : 0/0
  8779 ;;		Unchanged: 0/0
  8780 ;; Data sizes:     COMMON   BANK0   BANK1   BANK2   BANK3   BANK4   BANK5   BANK6   BANK7   BANK8   BANK9  BANK10  BANK1
      +1  BANK12
  8781 ;;      Params:         0       0       0       0       0       0       0       0       0       0       0       0       
      +0       0
  8782 ;;      Locals:         0       0       0       0       0       0       0       0       0       0       0       0       
      +0       0
  8783 ;;      Temps:          0       0       0       0       0       0       0       0       0       0       0       0       
      +0       0
  8784 ;;      Totals:         0       0       0       0       0       0       0       0       0       0       0       0       
      +0       0
  8785 ;;Total ram usage:        0 bytes
  8786 ;; Hardware stack levels used: 1
  8787 ;; Hardware stack levels required when called: 3
  8788 ;; This function calls:
  8789 ;;		_TMR4_CallBack
  8790 ;; This function is called by:
  8791 ;;		_INTERRUPT_InterruptManager
  8792 ;; This function uses a non-reentrant model
  8793 ;;
  8794                           
  8795                           
  8796                           ;psect for function _TMR4_ISR
  8797  05BA                     _TMR4_ISR:
  8798  05BA                     i1l3198:	
  8799                           ;incstack = 0
  8800                           ; Regs used in _TMR4_ISR: [wreg+status,2+status,0+pclath+cstack]
  8801                           
  8802                           
  8803                           ;mcc_generated_files/tmr4.c: 121:     static volatile unsigned int CountCallBack = 0;;mc
      +                          c_generated_files/tmr4.c: 124:     PIR3bits.TMR4IF = 0;
  8804  05BA  0020               	movlb	0	; select bank0
  8805  05BB  1093               	bcf	19,1	;volatile
  8806  05BC                     i1l3200:
  8807                           
  8808                           ;mcc_generated_files/tmr4.c: 127:     if (++CountCallBack >= 2000)
  8809  05BC  3001               	movlw	1
  8810  05BD  07F9               	addwf	TMR4_ISR@CountCallBack,f	;volatile
  8811  05BE  3000               	movlw	0
  8812  05BF  3DFA               	addwfc	TMR4_ISR@CountCallBack+1,f	;volatile
  8813  05C0  3007               	movlw	7
  8814  05C1  027A               	subwf	TMR4_ISR@CountCallBack+1,w	;volatile
  8815  05C2  30D0               	movlw	208
  8816  05C3  1903               	skipnz
  8817  05C4  0279               	subwf	TMR4_ISR@CountCallBack,w	;volatile
  8818  05C5  1C03               	skipc
  8819  05C6  2DC8               	goto	u101_21
  8820  05C7  2DC9               	goto	u101_20
  8821  05C8                     u101_21:
  8822  05C8  2DCE               	goto	i1l866
  8823  05C9                     u101_20:
  8824  05C9                     i1l3202:
  8825                           
  8826                           ;mcc_generated_files/tmr4.c: 128:     {;mcc_generated_files/tmr4.c: 130:         TMR4_Ca
      +                          llBack();
  8827  05C9  3186  26AC  3185   	fcall	_TMR4_CallBack
  8828  05CC                     i1l3204:
  8829                           
  8830                           ;mcc_generated_files/tmr4.c: 133:         CountCallBack = 0;
  8831  05CC  01F9               	clrf	TMR4_ISR@CountCallBack	;volatile
  8832  05CD  01FA               	clrf	TMR4_ISR@CountCallBack+1	;volatile
  8833  05CE                     i1l866:
  8834  05CE  0008               	return
  8835  05CF                     __end_of_TMR4_ISR:
  8836                           
  8837                           	psect	text71
  8838  06AC                     __ptext71:	
  8839 ;; *************** function _TMR4_CallBack *****************
  8840 ;; Defined at:
  8841 ;;		line 137 in file "mcc_generated_files/tmr4.c"
  8842 ;; Parameters:    Size  Location     Type
  8843 ;;		None
  8844 ;; Auto vars:     Size  Location     Type
  8845 ;;		None
  8846 ;; Return value:  Size  Location     Type
  8847 ;;                  1    wreg      void 
  8848 ;; Registers used:
  8849 ;;		wreg, status,2, status,0, pclath, cstack
  8850 ;; Tracked objects:
  8851 ;;		On entry : 0/0
  8852 ;;		On exit  : 0/0
  8853 ;;		Unchanged: 0/0
  8854 ;; Data sizes:     COMMON   BANK0   BANK1   BANK2   BANK3   BANK4   BANK5   BANK6   BANK7   BANK8   BANK9  BANK10  BANK1
      +1  BANK12
  8855 ;;      Params:         0       0       0       0       0       0       0       0       0       0       0       0       
      +0       0
  8856 ;;      Locals:         0       0       0       0       0       0       0       0       0       0       0       0       
      +0       0
  8857 ;;      Temps:          0       0       0       0       0       0       0       0       0       0       0       0       
      +0       0
  8858 ;;      Totals:         0       0       0       0       0       0       0       0       0       0       0       0       
      +0       0
  8859 ;;Total ram usage:        0 bytes
  8860 ;; Hardware stack levels used: 1
  8861 ;; Hardware stack levels required when called: 2
  8862 ;; This function calls:
  8863 ;;		Absolute function
  8864 ;;		_TMR4_DefaultInterruptHandler
  8865 ;;		_TimerInterrupt
  8866 ;; This function is called by:
  8867 ;;		_TMR4_ISR
  8868 ;; This function uses a non-reentrant model
  8869 ;;
  8870                           
  8871                           
  8872                           ;psect for function _TMR4_CallBack
  8873  06AC                     _TMR4_CallBack:
  8874  06AC                     i1l3144:	
  8875                           ;incstack = 0
  8876                           ; Regs used in _TMR4_CallBack: [wreg+status,2+status,0+pclath+cstack]
  8877                           
  8878                           
  8879                           ;mcc_generated_files/tmr4.c: 141:     if(TMR4_InterruptHandler)
  8880  06AC  0020               	movlb	0	; select bank0
  8881  06AD  083D               	movf	_TMR4_InterruptHandler,w
  8882  06AE  043E               	iorwf	_TMR4_InterruptHandler+1,w
  8883  06AF  1903               	btfsc	3,2
  8884  06B0  2EB2               	goto	u92_21
  8885  06B1  2EB3               	goto	u92_20
  8886  06B2                     u92_21:
  8887  06B2  2EB8               	goto	i1l870
  8888  06B3                     u92_20:
  8889  06B3                     i1l3146:
  8890                           
  8891                           ;mcc_generated_files/tmr4.c: 142:     {;mcc_generated_files/tmr4.c: 143:         TMR4_In
      +                          terruptHandler();
  8892  06B3  083E               	movf	_TMR4_InterruptHandler+1,w
  8893  06B4  008A               	movwf	10
  8894  06B5  083D               	movf	_TMR4_InterruptHandler,w
  8895  06B6  000A               	callw
  8896  06B7  3186               	pagesel	$
  8897  06B8                     i1l870:
  8898  06B8  0008               	return
  8899  06B9                     __end_of_TMR4_CallBack:
  8900                           
  8901                           	psect	text72
  8902  07A5                     __ptext72:	
  8903 ;; *************** function _TMR4_DefaultInterruptHandler *****************
  8904 ;; Defined at:
  8905 ;;		line 151 in file "mcc_generated_files/tmr4.c"
  8906 ;; Parameters:    Size  Location     Type
  8907 ;;		None
  8908 ;; Auto vars:     Size  Location     Type
  8909 ;;		None
  8910 ;; Return value:  Size  Location     Type
  8911 ;;                  1    wreg      void 
  8912 ;; Registers used:
  8913 ;;		None
  8914 ;; Tracked objects:
  8915 ;;		On entry : 0/0
  8916 ;;		On exit  : 0/0
  8917 ;;		Unchanged: 0/0
  8918 ;; Data sizes:     COMMON   BANK0   BANK1   BANK2   BANK3   BANK4   BANK5   BANK6   BANK7   BANK8   BANK9  BANK10  BANK1
      +1  BANK12
  8919 ;;      Params:         0       0       0       0       0       0       0       0       0       0       0       0       
      +0       0
  8920 ;;      Locals:         0       0       0       0       0       0       0       0       0       0       0       0       
      +0       0
  8921 ;;      Temps:          0       0       0       0       0       0       0       0       0       0       0       0       
      +0       0
  8922 ;;      Totals:         0       0       0       0       0       0       0       0       0       0       0       0       
      +0       0
  8923 ;;Total ram usage:        0 bytes
  8924 ;; Hardware stack levels used: 1
  8925 ;; This function calls:
  8926 ;;		Nothing
  8927 ;; This function is called by:
  8928 ;;		_TMR4_Initialize
  8929 ;;		_TMR4_CallBack
  8930 ;; This function uses a non-reentrant model
  8931 ;;
  8932                           
  8933                           
  8934                           ;psect for function _TMR4_DefaultInterruptHandler
  8935  07A5                     _TMR4_DefaultInterruptHandler:
  8936  07A5                     i1l876:	
  8937                           ;incstack = 0
  8938                           ; Regs used in _TMR4_DefaultInterruptHandler: []
  8939                           
  8940  07A5  0008               	return
  8941  07A6                     __end_of_TMR4_DefaultInterruptHandler:
  8942                           
  8943                           	psect	text73
  8944  077B                     __ptext73:	
  8945 ;; *************** function _TimerInterrupt *****************
  8946 ;; Defined at:
  8947 ;;		line 196 in file "main.c"
  8948 ;; Parameters:    Size  Location     Type
  8949 ;;		None
  8950 ;; Auto vars:     Size  Location     Type
  8951 ;;		None
  8952 ;; Return value:  Size  Location     Type
  8953 ;;                  1    wreg      void 
  8954 ;; Registers used:
  8955 ;;		status,2, status,0, pclath, cstack
  8956 ;; Tracked objects:
  8957 ;;		On entry : 0/0
  8958 ;;		On exit  : 0/0
  8959 ;;		Unchanged: 0/0
  8960 ;; Data sizes:     COMMON   BANK0   BANK1   BANK2   BANK3   BANK4   BANK5   BANK6   BANK7   BANK8   BANK9  BANK10  BANK1
      +1  BANK12
  8961 ;;      Params:         0       0       0       0       0       0       0       0       0       0       0       0       
      +0       0
  8962 ;;      Locals:         0       0       0       0       0       0       0       0       0       0       0       0       
      +0       0
  8963 ;;      Temps:          0       0       0       0       0       0       0       0       0       0       0       0       
      +0       0
  8964 ;;      Totals:         0       0       0       0       0       0       0       0       0       0       0       0       
      +0       0
  8965 ;;Total ram usage:        0 bytes
  8966 ;; Hardware stack levels used: 1
  8967 ;; Hardware stack levels required when called: 1
  8968 ;; This function calls:
  8969 ;;		_TMR4_StopTimer
  8970 ;; This function is called by:
  8971 ;;		_main
  8972 ;;		_TMR4_CallBack
  8973 ;; This function uses a non-reentrant model
  8974 ;;
  8975                           
  8976                           
  8977                           ;psect for function _TimerInterrupt
  8978  077B                     _TimerInterrupt:
  8979  077B                     i1l2982:	
  8980                           ;incstack = 0
  8981                           ; Regs used in _TimerInterrupt: [status,2+status,0+pclath+cstack]
  8982                           
  8983                           
  8984                           ;main.c: 198:     TMR4_StopTimer();
  8985  077B  3187  279E  3187   	fcall	_TMR4_StopTimer
  8986  077E                     i1l822:
  8987  077E  0008               	return
  8988  077F                     __end_of_TimerInterrupt:
  8989                           
  8990                           	psect	text74
  8991  079E                     __ptext74:	
  8992 ;; *************** function _TMR4_StopTimer *****************
  8993 ;; Defined at:
  8994 ;;		line 93 in file "mcc_generated_files/tmr4.c"
  8995 ;; Parameters:    Size  Location     Type
  8996 ;;		None
  8997 ;; Auto vars:     Size  Location     Type
  8998 ;;		None
  8999 ;; Return value:  Size  Location     Type
  9000 ;;                  1    wreg      void 
  9001 ;; Registers used:
  9002 ;;		None
  9003 ;; Tracked objects:
  9004 ;;		On entry : 0/0
  9005 ;;		On exit  : 0/0
  9006 ;;		Unchanged: 0/0
  9007 ;; Data sizes:     COMMON   BANK0   BANK1   BANK2   BANK3   BANK4   BANK5   BANK6   BANK7   BANK8   BANK9  BANK10  BANK1
      +1  BANK12
  9008 ;;      Params:         0       0       0       0       0       0       0       0       0       0       0       0       
      +0       0
  9009 ;;      Locals:         0       0       0       0       0       0       0       0       0       0       0       0       
      +0       0
  9010 ;;      Temps:          0       0       0       0       0       0       0       0       0       0       0       0       
      +0       0
  9011 ;;      Totals:         0       0       0       0       0       0       0       0       0       0       0       0       
      +0       0
  9012 ;;Total ram usage:        0 bytes
  9013 ;; Hardware stack levels used: 1
  9014 ;; This function calls:
  9015 ;;		Nothing
  9016 ;; This function is called by:
  9017 ;;		_TimerInterrupt
  9018 ;; This function uses a non-reentrant model
  9019 ;;
  9020                           
  9021                           
  9022                           ;psect for function _TMR4_StopTimer
  9023  079E                     _TMR4_StopTimer:
  9024  079E                     i1l2936:	
  9025                           ;incstack = 0
  9026                           ; Regs used in _TMR4_StopTimer: []
  9027                           
  9028                           
  9029                           ;mcc_generated_files/tmr4.c: 96:     T4CONbits.TMR4ON = 0;
  9030  079E  0028               	movlb	8	; select bank8
  9031  079F  1117               	bcf	23,2	;volatile
  9032  07A0                     i1l851:
  9033  07A0  0008               	return
  9034  07A1                     __end_of_TMR4_StopTimer:
  9035                           
  9036                           	psect	text75
  9037  06EE                     __ptext75:	
  9038 ;; *************** function _PIN_MANAGER_IOC *****************
  9039 ;; Defined at:
  9040 ;;		line 115 in file "mcc_generated_files/pin_manager.c"
  9041 ;; Parameters:    Size  Location     Type
  9042 ;;		None
  9043 ;; Auto vars:     Size  Location     Type
  9044 ;;		None
  9045 ;; Return value:  Size  Location     Type
  9046 ;;                  1    wreg      void 
  9047 ;; Registers used:
  9048 ;;		wreg, status,2, status,0, pclath, cstack
  9049 ;; Tracked objects:
  9050 ;;		On entry : 0/0
  9051 ;;		On exit  : 0/0
  9052 ;;		Unchanged: 0/0
  9053 ;; Data sizes:     COMMON   BANK0   BANK1   BANK2   BANK3   BANK4   BANK5   BANK6   BANK7   BANK8   BANK9  BANK10  BANK1
      +1  BANK12
  9054 ;;      Params:         0       0       0       0       0       0       0       0       0       0       0       0       
      +0       0
  9055 ;;      Locals:         0       0       0       0       0       0       0       0       0       0       0       0       
      +0       0
  9056 ;;      Temps:          0       0       0       0       0       0       0       0       0       0       0       0       
      +0       0
  9057 ;;      Totals:         0       0       0       0       0       0       0       0       0       0       0       0       
      +0       0
  9058 ;;Total ram usage:        0 bytes
  9059 ;; Hardware stack levels used: 1
  9060 ;; Hardware stack levels required when called: 4
  9061 ;; This function calls:
  9062 ;;		_IOCBF7_ISR
  9063 ;; This function is called by:
  9064 ;;		_INTERRUPT_InterruptManager
  9065 ;; This function uses a non-reentrant model
  9066 ;;
  9067                           
  9068                           
  9069                           ;psect for function _PIN_MANAGER_IOC
  9070  06EE                     _PIN_MANAGER_IOC:
  9071  06EE                     i1l3194:	
  9072                           ;incstack = 0
  9073                           ; Regs used in _PIN_MANAGER_IOC: [wreg+status,2+status,0+pclath+cstack]
  9074                           
  9075                           
  9076                           ;mcc_generated_files/pin_manager.c: 118:     if(IOCBFbits.IOCBF7 == 1)
  9077  06EE  0027               	movlb	7	; select bank7
  9078  06EF  1F96               	btfss	22,7	;volatile
  9079  06F0  2EF2               	goto	u100_21
  9080  06F1  2EF3               	goto	u100_20
  9081  06F2                     u100_21:
  9082  06F2  2EF6               	goto	i1l411
  9083  06F3                     u100_20:
  9084  06F3                     i1l3196:
  9085                           
  9086                           ;mcc_generated_files/pin_manager.c: 119:     {;mcc_generated_files/pin_manager.c: 120:  
      +                                 IOCBF7_ISR();
  9087  06F3  3186  2677  3186   	fcall	_IOCBF7_ISR
  9088  06F6                     i1l411:
  9089  06F6  0008               	return
  9090  06F7                     __end_of_PIN_MANAGER_IOC:
  9091                           
  9092                           	psect	text76
  9093  0677                     __ptext76:	
  9094 ;; *************** function _IOCBF7_ISR *****************
  9095 ;; Defined at:
  9096 ;;		line 127 in file "mcc_generated_files/pin_manager.c"
  9097 ;; Parameters:    Size  Location     Type
  9098 ;;		None
  9099 ;; Auto vars:     Size  Location     Type
  9100 ;;		None
  9101 ;; Return value:  Size  Location     Type
  9102 ;;                  1    wreg      void 
  9103 ;; Registers used:
  9104 ;;		wreg, status,2, status,0, pclath, cstack
  9105 ;; Tracked objects:
  9106 ;;		On entry : 0/0
  9107 ;;		On exit  : 0/0
  9108 ;;		Unchanged: 0/0
  9109 ;; Data sizes:     COMMON   BANK0   BANK1   BANK2   BANK3   BANK4   BANK5   BANK6   BANK7   BANK8   BANK9  BANK10  BANK1
      +1  BANK12
  9110 ;;      Params:         0       0       0       0       0       0       0       0       0       0       0       0       
      +0       0
  9111 ;;      Locals:         0       0       0       0       0       0       0       0       0       0       0       0       
      +0       0
  9112 ;;      Temps:          0       0       0       0       0       0       0       0       0       0       0       0       
      +0       0
  9113 ;;      Totals:         0       0       0       0       0       0       0       0       0       0       0       0       
      +0       0
  9114 ;;Total ram usage:        0 bytes
  9115 ;; Hardware stack levels used: 1
  9116 ;; Hardware stack levels required when called: 3
  9117 ;; This function calls:
  9118 ;;		Absolute function
  9119 ;;		_ButtonInterrupt
  9120 ;;		_IOCBF7_DefaultInterruptHandler
  9121 ;; This function is called by:
  9122 ;;		_PIN_MANAGER_IOC
  9123 ;; This function uses a non-reentrant model
  9124 ;;
  9125                           
  9126                           
  9127                           ;psect for function _IOCBF7_ISR
  9128  0677                     _IOCBF7_ISR:
  9129  0677                     i1l3138:	
  9130                           ;incstack = 0
  9131                           ; Regs used in _IOCBF7_ISR: [wreg+status,2+status,0+pclath+cstack]
  9132                           
  9133                           
  9134                           ;mcc_generated_files/pin_manager.c: 132:     if(IOCBF7_InterruptHandler)
  9135  0677  0877               	movf	_IOCBF7_InterruptHandler,w
  9136  0678  0478               	iorwf	_IOCBF7_InterruptHandler+1,w
  9137  0679  1903               	btfsc	3,2
  9138  067A  2E7C               	goto	u91_21
  9139  067B  2E7D               	goto	u91_20
  9140  067C                     u91_21:
  9141  067C  2E82               	goto	i1l3142
  9142  067D                     u91_20:
  9143  067D                     i1l3140:
  9144                           
  9145                           ;mcc_generated_files/pin_manager.c: 133:     {;mcc_generated_files/pin_manager.c: 134:  
      +                                 IOCBF7_InterruptHandler();
  9146  067D  0878               	movf	_IOCBF7_InterruptHandler+1,w
  9147  067E  008A               	movwf	10
  9148  067F  0877               	movf	_IOCBF7_InterruptHandler,w
  9149  0680  000A               	callw
  9150  0681  3186               	pagesel	$
  9151  0682                     i1l3142:
  9152                           
  9153                           ;mcc_generated_files/pin_manager.c: 136:     IOCBFbits.IOCBF7 = 0;
  9154  0682  0027               	movlb	7	; select bank7
  9155  0683  1396               	bcf	22,7	;volatile
  9156  0684                     i1l415:
  9157  0684  0008               	return
  9158  0685                     __end_of_IOCBF7_ISR:
  9159                           
  9160                           	psect	text77
  9161  077F                     __ptext77:	
  9162 ;; *************** function _ButtonInterrupt *****************
  9163 ;; Defined at:
  9164 ;;		line 191 in file "main.c"
  9165 ;; Parameters:    Size  Location     Type
  9166 ;;		None
  9167 ;; Auto vars:     Size  Location     Type
  9168 ;;		None
  9169 ;; Return value:  Size  Location     Type
  9170 ;;                  1    wreg      void 
  9171 ;; Registers used:
  9172 ;;		wreg, status,2, status,0, pclath, cstack
  9173 ;; Tracked objects:
  9174 ;;		On entry : 0/0
  9175 ;;		On exit  : 0/0
  9176 ;;		Unchanged: 0/0
  9177 ;; Data sizes:     COMMON   BANK0   BANK1   BANK2   BANK3   BANK4   BANK5   BANK6   BANK7   BANK8   BANK9  BANK10  BANK1
      +1  BANK12
  9178 ;;      Params:         0       0       0       0       0       0       0       0       0       0       0       0       
      +0       0
  9179 ;;      Locals:         0       0       0       0       0       0       0       0       0       0       0       0       
      +0       0
  9180 ;;      Temps:          0       0       0       0       0       0       0       0       0       0       0       0       
      +0       0
  9181 ;;      Totals:         0       0       0       0       0       0       0       0       0       0       0       0       
      +0       0
  9182 ;;Total ram usage:        0 bytes
  9183 ;; Hardware stack levels used: 1
  9184 ;; Hardware stack levels required when called: 2
  9185 ;; This function calls:
  9186 ;;		_patronus
  9187 ;; This function is called by:
  9188 ;;		_main
  9189 ;;		_IOCBF7_ISR
  9190 ;; This function uses a non-reentrant model
  9191 ;;
  9192                           
  9193                           
  9194                           ;psect for function _ButtonInterrupt
  9195  077F                     _ButtonInterrupt:
  9196  077F                     i1l2980:	
  9197                           ;incstack = 0
  9198                           ; Regs used in _ButtonInterrupt: [wreg+status,2+status,0+pclath+cstack]
  9199                           
  9200                           
  9201                           ;main.c: 192:     patronus();
  9202  077F  3181  216C  3187   	fcall	_patronus
  9203  0782                     i1l819:
  9204  0782  0008               	return
  9205  0783                     __end_of_ButtonInterrupt:
  9206                           
  9207                           	psect	text78
  9208  07A6                     __ptext78:	
  9209 ;; *************** function _IOCBF7_DefaultInterruptHandler *****************
  9210 ;; Defined at:
  9211 ;;		line 149 in file "mcc_generated_files/pin_manager.c"
  9212 ;; Parameters:    Size  Location     Type
  9213 ;;		None
  9214 ;; Auto vars:     Size  Location     Type
  9215 ;;		None
  9216 ;; Return value:  Size  Location     Type
  9217 ;;                  1    wreg      void 
  9218 ;; Registers used:
  9219 ;;		None
  9220 ;; Tracked objects:
  9221 ;;		On entry : 0/0
  9222 ;;		On exit  : 0/0
  9223 ;;		Unchanged: 0/0
  9224 ;; Data sizes:     COMMON   BANK0   BANK1   BANK2   BANK3   BANK4   BANK5   BANK6   BANK7   BANK8   BANK9  BANK10  BANK1
      +1  BANK12
  9225 ;;      Params:         0       0       0       0       0       0       0       0       0       0       0       0       
      +0       0
  9226 ;;      Locals:         0       0       0       0       0       0       0       0       0       0       0       0       
      +0       0
  9227 ;;      Temps:          0       0       0       0       0       0       0       0       0       0       0       0       
      +0       0
  9228 ;;      Totals:         0       0       0       0       0       0       0       0       0       0       0       0       
      +0       0
  9229 ;;Total ram usage:        0 bytes
  9230 ;; Hardware stack levels used: 1
  9231 ;; This function calls:
  9232 ;;		Nothing
  9233 ;; This function is called by:
  9234 ;;		_PIN_MANAGER_Initialize
  9235 ;;		_IOCBF7_ISR
  9236 ;; This function uses a non-reentrant model
  9237 ;;
  9238                           
  9239                           
  9240                           ;psect for function _IOCBF7_DefaultInterruptHandler
  9241  07A6                     _IOCBF7_DefaultInterruptHandler:
  9242  07A6                     i1l421:	
  9243                           ;incstack = 0
  9244                           ; Regs used in _IOCBF7_DefaultInterruptHandler: []
  9245                           
  9246  07A6  0008               	return
  9247  07A7                     __end_of_IOCBF7_DefaultInterruptHandler:
  9248                           
  9249                           	psect	text79
  9250  016C                     __ptext79:	
  9251 ;; *************** function _patronus *****************
  9252 ;; Defined at:
  9253 ;;		line 57 in file "main.c"
  9254 ;; Parameters:    Size  Location     Type
  9255 ;;		None
  9256 ;; Auto vars:     Size  Location     Type
  9257 ;;  i               1    6[COMMON] unsigned char 
  9258 ;; Return value:  Size  Location     Type
  9259 ;;                  1    wreg      void 
  9260 ;; Registers used:
  9261 ;;		wreg, status,2, status,0, pclath, cstack
  9262 ;; Tracked objects:
  9263 ;;		On entry : 0/0
  9264 ;;		On exit  : 0/0
  9265 ;;		Unchanged: 0/0
  9266 ;; Data sizes:     COMMON   BANK0   BANK1   BANK2   BANK3   BANK4   BANK5   BANK6   BANK7   BANK8   BANK9  BANK10  BANK1
      +1  BANK12
  9267 ;;      Params:         0       0       0       0       0       0       0       0       0       0       0       0       
      +0       0
  9268 ;;      Locals:         1       0       0       0       0       0       0       0       0       0       0       0       
      +0       0
  9269 ;;      Temps:          2       0       0       0       0       0       0       0       0       0       0       0       
      +0       0
  9270 ;;      Totals:         3       0       0       0       0       0       0       0       0       0       0       0       
      +0       0
  9271 ;;Total ram usage:        3 bytes
  9272 ;; Hardware stack levels used: 1
  9273 ;; Hardware stack levels required when called: 1
  9274 ;; This function calls:
  9275 ;;		i1_DELAY_milliseconds
  9276 ;;		i1_EPWM1_LoadDutyValue
  9277 ;;		i1_EPWM2_LoadDutyValue
  9278 ;;		i1_PWM4_LoadDutyValue
  9279 ;; This function is called by:
  9280 ;;		_ButtonInterrupt
  9281 ;; This function uses a non-reentrant model
  9282 ;;
  9283                           
  9284                           
  9285                           ;psect for function _patronus
  9286  016C                     _patronus:
  9287  016C                     i1l2884:	
  9288                           ;incstack = 0
  9289                           ; Regs used in _patronus: [wreg+status,2+status,0+pclath+cstack]
  9290                           
  9291                           
  9292                           ;main.c: 59:     EPWM1_LoadDutyValue(0);
  9293  016C  3000               	movlw	0
  9294  016D  00F0               	movwf	i1EPWM1_LoadDutyValue@dutyValue
  9295  016E  00F1               	movwf	i1EPWM1_LoadDutyValue@dutyValue+1
  9296  016F  3185  258D  3181   	fcall	i1_EPWM1_LoadDutyValue
  9297                           
  9298                           ;main.c: 60:     EPWM2_LoadDutyValue(0);
  9299  0172  3000               	movlw	0
  9300  0173  00F0               	movwf	i1EPWM2_LoadDutyValue@dutyValue
  9301  0174  00F1               	movwf	i1EPWM2_LoadDutyValue@dutyValue+1
  9302  0175  3185  2576  3181   	fcall	i1_EPWM2_LoadDutyValue
  9303                           
  9304                           ;main.c: 61:     PWM4_LoadDutyValue(0);
  9305  0178  3000               	movlw	0
  9306  0179  00F0               	movwf	i1PWM4_LoadDutyValue@dutyValue
  9307  017A  00F1               	movwf	i1PWM4_LoadDutyValue@dutyValue+1
  9308  017B  3185  255F  3181   	fcall	i1_PWM4_LoadDutyValue
  9309  017E                     i1l2886:
  9310                           
  9311                           ;main.c: 63:     uint8_t i;;main.c: 66:     for (i=0;i<20;i++)
  9312  017E  01F6               	clrf	patronus@i
  9313  017F                     i1l2892:
  9314                           
  9315                           ;main.c: 67:     {;main.c: 68:         EPWM1_LoadDutyValue(i);
  9316  017F  0876               	movf	patronus@i,w
  9317  0180  00F4               	movwf	??_patronus
  9318  0181  01F5               	clrf	??_patronus+1
  9319  0182  0874               	movf	??_patronus,w
  9320  0183  00F0               	movwf	i1EPWM1_LoadDutyValue@dutyValue
  9321  0184  0875               	movf	??_patronus+1,w
  9322  0185  00F1               	movwf	i1EPWM1_LoadDutyValue@dutyValue+1
  9323  0186  3185  258D  3181   	fcall	i1_EPWM1_LoadDutyValue
  9324                           
  9325                           ;main.c: 69:         DELAY_milliseconds(100);
  9326  0189  3064               	movlw	100
  9327  018A  00F0               	movwf	i1DELAY_milliseconds@milliseconds
  9328  018B  3000               	movlw	0
  9329  018C  00F1               	movwf	i1DELAY_milliseconds@milliseconds+1
  9330  018D  3185  25A4  3181   	fcall	i1_DELAY_milliseconds
  9331  0190                     i1l2894:
  9332                           
  9333                           ;main.c: 70:     }
  9334  0190  3001               	movlw	1
  9335  0191  00F4               	movwf	??_patronus
  9336  0192  0874               	movf	??_patronus,w
  9337  0193  07F6               	addwf	patronus@i,f
  9338  0194                     i1l2896:
  9339  0194  3014               	movlw	20
  9340  0195  0276               	subwf	patronus@i,w
  9341  0196  1C03               	skipc
  9342  0197  2999               	goto	u80_21
  9343  0198  299A               	goto	u80_20
  9344  0199                     u80_21:
  9345  0199  297F               	goto	i1l2892
  9346  019A                     u80_20:
  9347  019A                     i1l2898:
  9348                           
  9349                           ;main.c: 73:     for (i=0;i<20;i++)
  9350  019A  01F6               	clrf	patronus@i
  9351  019B                     i1l2904:
  9352                           
  9353                           ;main.c: 74:     {;main.c: 75:         EPWM2_LoadDutyValue(i);
  9354  019B  0876               	movf	patronus@i,w
  9355  019C  00F4               	movwf	??_patronus
  9356  019D  01F5               	clrf	??_patronus+1
  9357  019E  0874               	movf	??_patronus,w
  9358  019F  00F0               	movwf	i1EPWM2_LoadDutyValue@dutyValue
  9359  01A0  0875               	movf	??_patronus+1,w
  9360  01A1  00F1               	movwf	i1EPWM2_LoadDutyValue@dutyValue+1
  9361  01A2  3185  2576  3181   	fcall	i1_EPWM2_LoadDutyValue
  9362                           
  9363                           ;main.c: 76:         PWM4_LoadDutyValue(i);
  9364  01A5  0876               	movf	patronus@i,w
  9365  01A6  00F4               	movwf	??_patronus
  9366  01A7  01F5               	clrf	??_patronus+1
  9367  01A8  0874               	movf	??_patronus,w
  9368  01A9  00F0               	movwf	i1PWM4_LoadDutyValue@dutyValue
  9369  01AA  0875               	movf	??_patronus+1,w
  9370  01AB  00F1               	movwf	i1PWM4_LoadDutyValue@dutyValue+1
  9371  01AC  3185  255F  3181   	fcall	i1_PWM4_LoadDutyValue
  9372                           
  9373                           ;main.c: 77:         DELAY_milliseconds(100);
  9374  01AF  3064               	movlw	100
  9375  01B0  00F0               	movwf	i1DELAY_milliseconds@milliseconds
  9376  01B1  3000               	movlw	0
  9377  01B2  00F1               	movwf	i1DELAY_milliseconds@milliseconds+1
  9378  01B3  3185  25A4  3181   	fcall	i1_DELAY_milliseconds
  9379  01B6                     i1l2906:
  9380                           
  9381                           ;main.c: 78:     }
  9382  01B6  3001               	movlw	1
  9383  01B7  00F4               	movwf	??_patronus
  9384  01B8  0874               	movf	??_patronus,w
  9385  01B9  07F6               	addwf	patronus@i,f
  9386  01BA                     i1l2908:
  9387  01BA  3014               	movlw	20
  9388  01BB  0276               	subwf	patronus@i,w
  9389  01BC  1C03               	skipc
  9390  01BD  29BF               	goto	u81_21
  9391  01BE  29C0               	goto	u81_20
  9392  01BF                     u81_21:
  9393  01BF  299B               	goto	i1l2904
  9394  01C0                     u81_20:
  9395  01C0                     i1l2910:
  9396                           
  9397                           ;main.c: 81:     for (i=20;i<100;i++)
  9398  01C0  3014               	movlw	20
  9399  01C1  00F4               	movwf	??_patronus
  9400  01C2  0874               	movf	??_patronus,w
  9401  01C3  00F6               	movwf	patronus@i
  9402  01C4                     i1l2914:
  9403                           
  9404                           ;main.c: 82:     {;main.c: 83:         EPWM1_LoadDutyValue(i);
  9405  01C4  0876               	movf	patronus@i,w
  9406  01C5  00F4               	movwf	??_patronus
  9407  01C6  01F5               	clrf	??_patronus+1
  9408  01C7  0874               	movf	??_patronus,w
  9409  01C8  00F0               	movwf	i1EPWM1_LoadDutyValue@dutyValue
  9410  01C9  0875               	movf	??_patronus+1,w
  9411  01CA  00F1               	movwf	i1EPWM1_LoadDutyValue@dutyValue+1
  9412  01CB  3185  258D  3181   	fcall	i1_EPWM1_LoadDutyValue
  9413                           
  9414                           ;main.c: 84:         EPWM2_LoadDutyValue(i);
  9415  01CE  0876               	movf	patronus@i,w
  9416  01CF  00F4               	movwf	??_patronus
  9417  01D0  01F5               	clrf	??_patronus+1
  9418  01D1  0874               	movf	??_patronus,w
  9419  01D2  00F0               	movwf	i1EPWM2_LoadDutyValue@dutyValue
  9420  01D3  0875               	movf	??_patronus+1,w
  9421  01D4  00F1               	movwf	i1EPWM2_LoadDutyValue@dutyValue+1
  9422  01D5  3185  2576  3181   	fcall	i1_EPWM2_LoadDutyValue
  9423                           
  9424                           ;main.c: 85:         PWM4_LoadDutyValue(i);
  9425  01D8  0876               	movf	patronus@i,w
  9426  01D9  00F4               	movwf	??_patronus
  9427  01DA  01F5               	clrf	??_patronus+1
  9428  01DB  0874               	movf	??_patronus,w
  9429  01DC  00F0               	movwf	i1PWM4_LoadDutyValue@dutyValue
  9430  01DD  0875               	movf	??_patronus+1,w
  9431  01DE  00F1               	movwf	i1PWM4_LoadDutyValue@dutyValue+1
  9432  01DF  3185  255F  3181   	fcall	i1_PWM4_LoadDutyValue
  9433                           
  9434                           ;main.c: 86:         DELAY_milliseconds(10);
  9435  01E2  300A               	movlw	10
  9436  01E3  00F0               	movwf	i1DELAY_milliseconds@milliseconds
  9437  01E4  3000               	movlw	0
  9438  01E5  00F1               	movwf	i1DELAY_milliseconds@milliseconds+1
  9439  01E6  3185  25A4  3181   	fcall	i1_DELAY_milliseconds
  9440  01E9                     i1l2916:
  9441                           
  9442                           ;main.c: 87:     }
  9443  01E9  3001               	movlw	1
  9444  01EA  00F4               	movwf	??_patronus
  9445  01EB  0874               	movf	??_patronus,w
  9446  01EC  07F6               	addwf	patronus@i,f
  9447  01ED                     i1l2918:
  9448  01ED  3064               	movlw	100
  9449  01EE  0276               	subwf	patronus@i,w
  9450  01EF  1C03               	skipc
  9451  01F0  29F2               	goto	u82_21
  9452  01F1  29F3               	goto	u82_20
  9453  01F2                     u82_21:
  9454  01F2  29C4               	goto	i1l2914
  9455  01F3                     u82_20:
  9456  01F3                     i1l2920:
  9457                           
  9458                           ;main.c: 89:     DELAY_milliseconds(3000);
  9459  01F3  30B8               	movlw	184
  9460  01F4  00F0               	movwf	i1DELAY_milliseconds@milliseconds
  9461  01F5  300B               	movlw	11
  9462  01F6  00F1               	movwf	i1DELAY_milliseconds@milliseconds+1
  9463  01F7  3185  25A4  3181   	fcall	i1_DELAY_milliseconds
  9464  01FA                     i1l2922:
  9465                           
  9466                           ;main.c: 92:     for (i=100;i>1;i--)
  9467  01FA  3064               	movlw	100
  9468  01FB  00F4               	movwf	??_patronus
  9469  01FC  0874               	movf	??_patronus,w
  9470  01FD  00F6               	movwf	patronus@i
  9471  01FE                     i1l2928:
  9472                           
  9473                           ;main.c: 93:     {;main.c: 94:         EPWM1_LoadDutyValue(i);
  9474  01FE  0876               	movf	patronus@i,w
  9475  01FF  00F4               	movwf	??_patronus
  9476  0200  01F5               	clrf	??_patronus+1
  9477  0201  0874               	movf	??_patronus,w
  9478  0202  00F0               	movwf	i1EPWM1_LoadDutyValue@dutyValue
  9479  0203  0875               	movf	??_patronus+1,w
  9480  0204  00F1               	movwf	i1EPWM1_LoadDutyValue@dutyValue+1
  9481  0205  3185  258D  3181   	fcall	i1_EPWM1_LoadDutyValue
  9482                           
  9483                           ;main.c: 95:         EPWM2_LoadDutyValue(i);
  9484  0208  0876               	movf	patronus@i,w
  9485  0209  00F4               	movwf	??_patronus
  9486  020A  01F5               	clrf	??_patronus+1
  9487  020B  0874               	movf	??_patronus,w
  9488  020C  00F0               	movwf	i1EPWM2_LoadDutyValue@dutyValue
  9489  020D  0875               	movf	??_patronus+1,w
  9490  020E  00F1               	movwf	i1EPWM2_LoadDutyValue@dutyValue+1
  9491  020F  3185  2576  3181   	fcall	i1_EPWM2_LoadDutyValue
  9492                           
  9493                           ;main.c: 96:         PWM4_LoadDutyValue(i);
  9494  0212  0876               	movf	patronus@i,w
  9495  0213  00F4               	movwf	??_patronus
  9496  0214  01F5               	clrf	??_patronus+1
  9497  0215  0874               	movf	??_patronus,w
  9498  0216  00F0               	movwf	i1PWM4_LoadDutyValue@dutyValue
  9499  0217  0875               	movf	??_patronus+1,w
  9500  0218  00F1               	movwf	i1PWM4_LoadDutyValue@dutyValue+1
  9501  0219  3185  255F  3181   	fcall	i1_PWM4_LoadDutyValue
  9502                           
  9503                           ;main.c: 97:         DELAY_milliseconds(10);
  9504  021C  300A               	movlw	10
  9505  021D  00F0               	movwf	i1DELAY_milliseconds@milliseconds
  9506  021E  3000               	movlw	0
  9507  021F  00F1               	movwf	i1DELAY_milliseconds@milliseconds+1
  9508  0220  3185  25A4  3181   	fcall	i1_DELAY_milliseconds
  9509  0223                     i1l2930:
  9510                           
  9511                           ;main.c: 98:     }
  9512  0223  3001               	movlw	1
  9513  0224  02F6               	subwf	patronus@i,f
  9514  0225                     i1l2932:
  9515  0225  3002               	movlw	2
  9516  0226  0276               	subwf	patronus@i,w
  9517  0227  1803               	skipnc
  9518  0228  2A2A               	goto	u83_21
  9519  0229  2A2B               	goto	u83_20
  9520  022A                     u83_21:
  9521  022A  29FE               	goto	i1l2928
  9522  022B                     u83_20:
  9523  022B                     i1l2934:
  9524                           
  9525                           ;main.c: 99:     EPWM1_LoadDutyValue(0);
  9526  022B  3000               	movlw	0
  9527  022C  00F0               	movwf	i1EPWM1_LoadDutyValue@dutyValue
  9528  022D  00F1               	movwf	i1EPWM1_LoadDutyValue@dutyValue+1
  9529  022E  3185  258D  3181   	fcall	i1_EPWM1_LoadDutyValue
  9530                           
  9531                           ;main.c: 100:     EPWM2_LoadDutyValue(0);
  9532  0231  3000               	movlw	0
  9533  0232  00F0               	movwf	i1EPWM2_LoadDutyValue@dutyValue
  9534  0233  00F1               	movwf	i1EPWM2_LoadDutyValue@dutyValue+1
  9535  0234  3185  2576  3181   	fcall	i1_EPWM2_LoadDutyValue
  9536                           
  9537                           ;main.c: 101:     PWM4_LoadDutyValue(0);
  9538  0237  3000               	movlw	0
  9539  0238  00F0               	movwf	i1PWM4_LoadDutyValue@dutyValue
  9540  0239  00F1               	movwf	i1PWM4_LoadDutyValue@dutyValue+1
  9541  023A  3185  255F  3181   	fcall	i1_PWM4_LoadDutyValue
  9542  023D                     i1l799:
  9543  023D  0008               	return
  9544  023E                     __end_of_patronus:
  9545                           
  9546                           	psect	text80
  9547  055F                     __ptext80:	
  9548 ;; *************** function i1_PWM4_LoadDutyValue *****************
  9549 ;; Defined at:
  9550 ;;		line 82 in file "mcc_generated_files/pwm4.c"
  9551 ;; Parameters:    Size  Location     Type
  9552 ;;  dutyValue       2    0[COMMON] unsigned short 
  9553 ;; Auto vars:     Size  Location     Type
  9554 ;;		None
  9555 ;; Return value:  Size  Location     Type
  9556 ;;                  1    wreg      void 
  9557 ;; Registers used:
  9558 ;;		wreg, status,2, status,0
  9559 ;; Tracked objects:
  9560 ;;		On entry : 0/0
  9561 ;;		On exit  : 0/0
  9562 ;;		Unchanged: 0/0
  9563 ;; Data sizes:     COMMON   BANK0   BANK1   BANK2   BANK3   BANK4   BANK5   BANK6   BANK7   BANK8   BANK9  BANK10  BANK1
      +1  BANK12
  9564 ;;      Params:         2       0       0       0       0       0       0       0       0       0       0       0       
      +0       0
  9565 ;;      Locals:         0       0       0       0       0       0       0       0       0       0       0       0       
      +0       0
  9566 ;;      Temps:          2       0       0       0       0       0       0       0       0       0       0       0       
      +0       0
  9567 ;;      Totals:         4       0       0       0       0       0       0       0       0       0       0       0       
      +0       0
  9568 ;;Total ram usage:        4 bytes
  9569 ;; Hardware stack levels used: 1
  9570 ;; This function calls:
  9571 ;;		Nothing
  9572 ;; This function is called by:
  9573 ;;		_patronus
  9574 ;; This function uses a non-reentrant model
  9575 ;;
  9576                           
  9577                           
  9578                           ;psect for function i1_PWM4_LoadDutyValue
  9579  055F                     i1_PWM4_LoadDutyValue:
  9580  055F                     i1l2872:	
  9581                           ;incstack = 0
  9582                           ; Regs used in i1_PWM4_LoadDutyValue: [wreg+status,2+status,0]
  9583                           
  9584                           
  9585                           ;mcc_generated_files/pwm4.c: 82: void PWM4_LoadDutyValue(uint16_t dutyValue);mcc_generat
      +                          ed_files/pwm4.c: 83: {;mcc_generated_files/pwm4.c: 85:     CCPR4L = ((dutyValue & 0x03FC
      +                          )>>2);
  9586  055F  0871               	movf	i1PWM4_LoadDutyValue@dutyValue+1,w
  9587  0560  00F3               	movwf	??i1_PWM4_LoadDutyValue+1
  9588  0561  0870               	movf	i1PWM4_LoadDutyValue@dutyValue,w
  9589  0562  00F2               	movwf	??i1_PWM4_LoadDutyValue
  9590  0563  36F3               	lsrf	??i1_PWM4_LoadDutyValue+1,f
  9591  0564  0CF2               	rrf	??i1_PWM4_LoadDutyValue,f
  9592  0565  36F3               	lsrf	??i1_PWM4_LoadDutyValue+1,f
  9593  0566  0CF2               	rrf	??i1_PWM4_LoadDutyValue,f
  9594  0567  0872               	movf	??i1_PWM4_LoadDutyValue,w
  9595  0568  0026               	movlb	6	; select bank6
  9596  0569  0098               	movwf	24	;volatile
  9597                           
  9598                           ;mcc_generated_files/pwm4.c: 88:     CCP4CON = ((uint8_t)(CCP4CON & 0xCF) | ((dutyValue 
      +                          & 0x0003)<<4));
  9599  056A  0870               	movf	i1PWM4_LoadDutyValue@dutyValue,w
  9600  056B  3903               	andlw	3
  9601  056C  00F2               	movwf	??i1_PWM4_LoadDutyValue
  9602  056D  3004               	movlw	4
  9603  056E                     u78_25:
  9604  056E  35F2               	lslf	??i1_PWM4_LoadDutyValue,f
  9605  056F  0B89               	decfsz	9,f
  9606  0570  2D6E               	goto	u78_25
  9607  0571  081A               	movf	26,w	;volatile
  9608  0572  39CF               	andlw	207
  9609  0573  0472               	iorwf	??i1_PWM4_LoadDutyValue,w
  9610  0574  009A               	movwf	26	;volatile
  9611  0575                     i1l358:
  9612  0575  0008               	return
  9613  0576                     __end_ofi1_PWM4_LoadDutyValue:
  9614                           
  9615                           	psect	text81
  9616  0576                     __ptext81:	
  9617 ;; *************** function i1_EPWM2_LoadDutyValue *****************
  9618 ;; Defined at:
  9619 ;;		line 90 in file "mcc_generated_files/epwm2.c"
  9620 ;; Parameters:    Size  Location     Type
  9621 ;;  dutyValue       2    0[COMMON] unsigned short 
  9622 ;; Auto vars:     Size  Location     Type
  9623 ;;		None
  9624 ;; Return value:  Size  Location     Type
  9625 ;;                  1    wreg      void 
  9626 ;; Registers used:
  9627 ;;		wreg, status,2, status,0
  9628 ;; Tracked objects:
  9629 ;;		On entry : 0/0
  9630 ;;		On exit  : 0/0
  9631 ;;		Unchanged: 0/0
  9632 ;; Data sizes:     COMMON   BANK0   BANK1   BANK2   BANK3   BANK4   BANK5   BANK6   BANK7   BANK8   BANK9  BANK10  BANK1
      +1  BANK12
  9633 ;;      Params:         2       0       0       0       0       0       0       0       0       0       0       0       
      +0       0
  9634 ;;      Locals:         0       0       0       0       0       0       0       0       0       0       0       0       
      +0       0
  9635 ;;      Temps:          2       0       0       0       0       0       0       0       0       0       0       0       
      +0       0
  9636 ;;      Totals:         4       0       0       0       0       0       0       0       0       0       0       0       
      +0       0
  9637 ;;Total ram usage:        4 bytes
  9638 ;; Hardware stack levels used: 1
  9639 ;; This function calls:
  9640 ;;		Nothing
  9641 ;; This function is called by:
  9642 ;;		_patronus
  9643 ;; This function uses a non-reentrant model
  9644 ;;
  9645                           
  9646                           
  9647                           ;psect for function i1_EPWM2_LoadDutyValue
  9648  0576                     i1_EPWM2_LoadDutyValue:
  9649  0576                     i1l2868:	
  9650                           ;incstack = 0
  9651                           ; Regs used in i1_EPWM2_LoadDutyValue: [wreg+status,2+status,0]
  9652                           
  9653                           
  9654                           ;mcc_generated_files/epwm2.c: 90: void EPWM2_LoadDutyValue(uint16_t dutyValue);mcc_gener
      +                          ated_files/epwm2.c: 91: {;mcc_generated_files/epwm2.c: 93:     CCPR2L = ((dutyValue & 0x
      +                          03FC)>>2);
  9655  0576  0871               	movf	i1EPWM2_LoadDutyValue@dutyValue+1,w
  9656  0577  00F3               	movwf	??i1_EPWM2_LoadDutyValue+1
  9657  0578  0870               	movf	i1EPWM2_LoadDutyValue@dutyValue,w
  9658  0579  00F2               	movwf	??i1_EPWM2_LoadDutyValue
  9659  057A  36F3               	lsrf	??i1_EPWM2_LoadDutyValue+1,f
  9660  057B  0CF2               	rrf	??i1_EPWM2_LoadDutyValue,f
  9661  057C  36F3               	lsrf	??i1_EPWM2_LoadDutyValue+1,f
  9662  057D  0CF2               	rrf	??i1_EPWM2_LoadDutyValue,f
  9663  057E  0872               	movf	??i1_EPWM2_LoadDutyValue,w
  9664  057F  0025               	movlb	5	; select bank5
  9665  0580  0098               	movwf	24	;volatile
  9666                           
  9667                           ;mcc_generated_files/epwm2.c: 96:     CCP2CON = ((uint8_t)(CCP2CON & 0xCF) | ((dutyValue
      +                           & 0x0003)<<4));
  9668  0581  0870               	movf	i1EPWM2_LoadDutyValue@dutyValue,w
  9669  0582  3903               	andlw	3
  9670  0583  00F2               	movwf	??i1_EPWM2_LoadDutyValue
  9671  0584  3004               	movlw	4
  9672  0585                     u76_25:
  9673  0585  35F2               	lslf	??i1_EPWM2_LoadDutyValue,f
  9674  0586  0B89               	decfsz	9,f
  9675  0587  2D85               	goto	u76_25
  9676  0588  081A               	movf	26,w	;volatile
  9677  0589  39CF               	andlw	207
  9678  058A  0472               	iorwf	??i1_EPWM2_LoadDutyValue,w
  9679  058B  009A               	movwf	26	;volatile
  9680  058C                     i1l201:
  9681  058C  0008               	return
  9682  058D                     __end_ofi1_EPWM2_LoadDutyValue:
  9683                           
  9684                           	psect	text82
  9685  058D                     __ptext82:	
  9686 ;; *************** function i1_EPWM1_LoadDutyValue *****************
  9687 ;; Defined at:
  9688 ;;		line 90 in file "mcc_generated_files/epwm1.c"
  9689 ;; Parameters:    Size  Location     Type
  9690 ;;  dutyValue       2    0[COMMON] unsigned short 
  9691 ;; Auto vars:     Size  Location     Type
  9692 ;;		None
  9693 ;; Return value:  Size  Location     Type
  9694 ;;                  1    wreg      void 
  9695 ;; Registers used:
  9696 ;;		wreg, status,2, status,0
  9697 ;; Tracked objects:
  9698 ;;		On entry : 0/0
  9699 ;;		On exit  : 0/0
  9700 ;;		Unchanged: 0/0
  9701 ;; Data sizes:     COMMON   BANK0   BANK1   BANK2   BANK3   BANK4   BANK5   BANK6   BANK7   BANK8   BANK9  BANK10  BANK1
      +1  BANK12
  9702 ;;      Params:         2       0       0       0       0       0       0       0       0       0       0       0       
      +0       0
  9703 ;;      Locals:         0       0       0       0       0       0       0       0       0       0       0       0       
      +0       0
  9704 ;;      Temps:          2       0       0       0       0       0       0       0       0       0       0       0       
      +0       0
  9705 ;;      Totals:         4       0       0       0       0       0       0       0       0       0       0       0       
      +0       0
  9706 ;;Total ram usage:        4 bytes
  9707 ;; Hardware stack levels used: 1
  9708 ;; This function calls:
  9709 ;;		Nothing
  9710 ;; This function is called by:
  9711 ;;		_patronus
  9712 ;; This function uses a non-reentrant model
  9713 ;;
  9714                           
  9715                           
  9716                           ;psect for function i1_EPWM1_LoadDutyValue
  9717  058D                     i1_EPWM1_LoadDutyValue:
  9718  058D                     i1l2870:	
  9719                           ;incstack = 0
  9720                           ; Regs used in i1_EPWM1_LoadDutyValue: [wreg+status,2+status,0]
  9721                           
  9722                           
  9723                           ;mcc_generated_files/epwm1.c: 90: void EPWM1_LoadDutyValue(uint16_t dutyValue);mcc_gener
      +                          ated_files/epwm1.c: 91: {;mcc_generated_files/epwm1.c: 93:     CCPR1L = ((dutyValue & 0x
      +                          03FC)>>2);
  9724  058D  0871               	movf	i1EPWM1_LoadDutyValue@dutyValue+1,w
  9725  058E  00F3               	movwf	??i1_EPWM1_LoadDutyValue+1
  9726  058F  0870               	movf	i1EPWM1_LoadDutyValue@dutyValue,w
  9727  0590  00F2               	movwf	??i1_EPWM1_LoadDutyValue
  9728  0591  36F3               	lsrf	??i1_EPWM1_LoadDutyValue+1,f
  9729  0592  0CF2               	rrf	??i1_EPWM1_LoadDutyValue,f
  9730  0593  36F3               	lsrf	??i1_EPWM1_LoadDutyValue+1,f
  9731  0594  0CF2               	rrf	??i1_EPWM1_LoadDutyValue,f
  9732  0595  0872               	movf	??i1_EPWM1_LoadDutyValue,w
  9733  0596  0025               	movlb	5	; select bank5
  9734  0597  0091               	movwf	17	;volatile
  9735                           
  9736                           ;mcc_generated_files/epwm1.c: 96:     CCP1CON = ((uint8_t)(CCP1CON & 0xCF) | ((dutyValue
      +                           & 0x0003)<<4));
  9737  0598  0870               	movf	i1EPWM1_LoadDutyValue@dutyValue,w
  9738  0599  3903               	andlw	3
  9739  059A  00F2               	movwf	??i1_EPWM1_LoadDutyValue
  9740  059B  3004               	movlw	4
  9741  059C                     u77_25:
  9742  059C  35F2               	lslf	??i1_EPWM1_LoadDutyValue,f
  9743  059D  0B89               	decfsz	9,f
  9744  059E  2D9C               	goto	u77_25
  9745  059F  0813               	movf	19,w	;volatile
  9746  05A0  39CF               	andlw	207
  9747  05A1  0472               	iorwf	??i1_EPWM1_LoadDutyValue,w
  9748  05A2  0093               	movwf	19	;volatile
  9749  05A3                     i1l221:
  9750  05A3  0008               	return
  9751  05A4                     __end_ofi1_EPWM1_LoadDutyValue:
  9752                           
  9753                           	psect	text83
  9754  05A4                     __ptext83:	
  9755 ;; *************** function i1_DELAY_milliseconds *****************
  9756 ;; Defined at:
  9757 ;;		line 38 in file "mcc_generated_files/delay.c"
  9758 ;; Parameters:    Size  Location     Type
  9759 ;;  milliseconds    2    0[COMMON] unsigned short 
  9760 ;; Auto vars:     Size  Location     Type
  9761 ;;		None
  9762 ;; Return value:  Size  Location     Type
  9763 ;;                  1    wreg      void 
  9764 ;; Registers used:
  9765 ;;		wreg, status,2, status,0
  9766 ;; Tracked objects:
  9767 ;;		On entry : 0/0
  9768 ;;		On exit  : 0/0
  9769 ;;		Unchanged: 0/0
  9770 ;; Data sizes:     COMMON   BANK0   BANK1   BANK2   BANK3   BANK4   BANK5   BANK6   BANK7   BANK8   BANK9  BANK10  BANK1
      +1  BANK12
  9771 ;;      Params:         2       0       0       0       0       0       0       0       0       0       0       0       
      +0       0
  9772 ;;      Locals:         0       0       0       0       0       0       0       0       0       0       0       0       
      +0       0
  9773 ;;      Temps:          1       0       0       0       0       0       0       0       0       0       0       0       
      +0       0
  9774 ;;      Totals:         3       0       0       0       0       0       0       0       0       0       0       0       
      +0       0
  9775 ;;Total ram usage:        3 bytes
  9776 ;; Hardware stack levels used: 1
  9777 ;; This function calls:
  9778 ;;		Nothing
  9779 ;; This function is called by:
  9780 ;;		_patronus
  9781 ;; This function uses a non-reentrant model
  9782 ;;
  9783                           
  9784                           
  9785                           ;psect for function i1_DELAY_milliseconds
  9786  05A4                     i1_DELAY_milliseconds:
  9787  05A4                     i1l2862:	
  9788                           ;incstack = 0
  9789                           ; Regs used in i1_DELAY_milliseconds: [wreg+status,2+status,0]
  9790                           
  9791                           
  9792                           ;mcc_generated_files/delay.c: 39:     while(milliseconds--){
  9793  05A4  2DAD               	goto	i1l2866
  9794  05A5                     i1l2864:
  9795                           
  9796                           ;mcc_generated_files/delay.c: 40:         _delay((unsigned long)((1)*(32000000/4000.0)))
      +                          ;
  9797  05A5  300B               	movlw	11
  9798  05A6  00F2               	movwf	??i1_DELAY_milliseconds
  9799  05A7  3062               	movlw	98
  9800  05A8                     u157_27:
  9801  05A8  0B89               	decfsz	9,f
  9802  05A9  2DA8               	goto	u157_27
  9803  05AA  0BF2               	decfsz	??i1_DELAY_milliseconds,f
  9804  05AB  2DA8               	goto	u157_27
  9805  05AC  3200               	nop2
  9806  05AD                     i1l2866:
  9807                           
  9808                           ;mcc_generated_files/delay.c: 39:     while(milliseconds--){
  9809  05AD  3001               	movlw	1
  9810  05AE  02F0               	subwf	i1DELAY_milliseconds@milliseconds,f
  9811  05AF  3000               	movlw	0
  9812  05B0  3BF1               	subwfb	i1DELAY_milliseconds@milliseconds+1,f
  9813  05B1  0A70               	incf	i1DELAY_milliseconds@milliseconds,w
  9814  05B2  1D03               	skipz
  9815  05B3  2DB8               	goto	u75_21
  9816  05B4  0A71               	incf	i1DELAY_milliseconds@milliseconds+1,w
  9817  05B5  1D03               	btfss	3,2
  9818  05B6  2DB8               	goto	u75_21
  9819  05B7  2DB9               	goto	u75_20
  9820  05B8                     u75_21:
  9821  05B8  2DA5               	goto	i1l2864
  9822  05B9                     u75_20:
  9823  05B9                     i1l122:
  9824  05B9  0008               	return
  9825  05BA                     __end_ofi1_DELAY_milliseconds:
  9826                           
  9827                           	psect	text84
  9828  076A                     __ptext84:	
  9829 ;; *************** function _INT_ISR *****************
  9830 ;; Defined at:
  9831 ;;		line 32 in file "mcc_generated_files/ext_int.c"
  9832 ;; Parameters:    Size  Location     Type
  9833 ;;		None
  9834 ;; Auto vars:     Size  Location     Type
  9835 ;;		None
  9836 ;; Return value:  Size  Location     Type
  9837 ;;                  1    wreg      void 
  9838 ;; Registers used:
  9839 ;;		wreg, status,2, status,0, pclath, cstack
  9840 ;; Tracked objects:
  9841 ;;		On entry : 0/0
  9842 ;;		On exit  : 0/0
  9843 ;;		Unchanged: 0/0
  9844 ;; Data sizes:     COMMON   BANK0   BANK1   BANK2   BANK3   BANK4   BANK5   BANK6   BANK7   BANK8   BANK9  BANK10  BANK1
      +1  BANK12
  9845 ;;      Params:         0       0       0       0       0       0       0       0       0       0       0       0       
      +0       0
  9846 ;;      Locals:         0       0       0       0       0       0       0       0       0       0       0       0       
      +0       0
  9847 ;;      Temps:          0       0       0       0       0       0       0       0       0       0       0       0       
      +0       0
  9848 ;;      Totals:         0       0       0       0       0       0       0       0       0       0       0       0       
      +0       0
  9849 ;;Total ram usage:        0 bytes
  9850 ;; Hardware stack levels used: 1
  9851 ;; Hardware stack levels required when called: 2
  9852 ;; This function calls:
  9853 ;;		_INT_CallBack
  9854 ;; This function is called by:
  9855 ;;		_INTERRUPT_InterruptManager
  9856 ;; This function uses a non-reentrant model
  9857 ;;
  9858                           
  9859                           
  9860                           ;psect for function _INT_ISR
  9861  076A                     _INT_ISR:
  9862  076A                     i1l3190:	
  9863                           ;incstack = 0
  9864                           ; Regs used in _INT_ISR: [wreg+status,2+status,0+pclath+cstack]
  9865                           
  9866                           
  9867                           ;mcc_generated_files/ext_int.c: 34:     (INTCONbits.INTF = 0);
  9868  076A  108B               	bcf	11,1	;volatile
  9869  076B                     i1l3192:
  9870                           
  9871                           ;mcc_generated_files/ext_int.c: 37:     INT_CallBack();
  9872  076B  3186  26B9  3187   	fcall	_INT_CallBack
  9873  076E                     i1l257:
  9874  076E  0008               	return
  9875  076F                     __end_of_INT_ISR:
  9876                           
  9877                           	psect	text85
  9878  06B9                     __ptext85:	
  9879 ;; *************** function _INT_CallBack *****************
  9880 ;; Defined at:
  9881 ;;		line 41 in file "mcc_generated_files/ext_int.c"
  9882 ;; Parameters:    Size  Location     Type
  9883 ;;		None
  9884 ;; Auto vars:     Size  Location     Type
  9885 ;;		None
  9886 ;; Return value:  Size  Location     Type
  9887 ;;                  1    wreg      void 
  9888 ;; Registers used:
  9889 ;;		wreg, status,2, status,0, pclath, cstack
  9890 ;; Tracked objects:
  9891 ;;		On entry : 0/0
  9892 ;;		On exit  : 0/0
  9893 ;;		Unchanged: 0/0
  9894 ;; Data sizes:     COMMON   BANK0   BANK1   BANK2   BANK3   BANK4   BANK5   BANK6   BANK7   BANK8   BANK9  BANK10  BANK1
      +1  BANK12
  9895 ;;      Params:         0       0       0       0       0       0       0       0       0       0       0       0       
      +0       0
  9896 ;;      Locals:         0       0       0       0       0       0       0       0       0       0       0       0       
      +0       0
  9897 ;;      Temps:          0       0       0       0       0       0       0       0       0       0       0       0       
      +0       0
  9898 ;;      Totals:         0       0       0       0       0       0       0       0       0       0       0       0       
      +0       0
  9899 ;;Total ram usage:        0 bytes
  9900 ;; Hardware stack levels used: 1
  9901 ;; Hardware stack levels required when called: 1
  9902 ;; This function calls:
  9903 ;;		Absolute function
  9904 ;;		_INT_DefaultInterruptHandler
  9905 ;;		_WakeUpInterrupt
  9906 ;; This function is called by:
  9907 ;;		_INT_ISR
  9908 ;; This function uses a non-reentrant model
  9909 ;;
  9910                           
  9911                           
  9912                           ;psect for function _INT_CallBack
  9913  06B9                     _INT_CallBack:
  9914  06B9                     i1l3064:	
  9915                           ;incstack = 0
  9916                           ; Regs used in _INT_CallBack: [wreg+status,2+status,0+pclath+cstack]
  9917                           
  9918                           
  9919                           ;mcc_generated_files/ext_int.c: 44:     if(INT_InterruptHandler)
  9920  06B9  0020               	movlb	0	; select bank0
  9921  06BA  083F               	movf	_INT_InterruptHandler,w
  9922  06BB  0440               	iorwf	_INT_InterruptHandler+1,w
  9923  06BC  1903               	btfsc	3,2
  9924  06BD  2EBF               	goto	u89_21
  9925  06BE  2EC0               	goto	u89_20
  9926  06BF                     u89_21:
  9927  06BF  2EC5               	goto	i1l261
  9928  06C0                     u89_20:
  9929  06C0                     i1l3066:
  9930                           
  9931                           ;mcc_generated_files/ext_int.c: 45:     {;mcc_generated_files/ext_int.c: 46:         INT
      +                          _InterruptHandler();
  9932  06C0  0840               	movf	_INT_InterruptHandler+1,w
  9933  06C1  008A               	movwf	10
  9934  06C2  083F               	movf	_INT_InterruptHandler,w
  9935  06C3  000A               	callw
  9936  06C4  3186               	pagesel	$
  9937  06C5                     i1l261:
  9938  06C5  0008               	return
  9939  06C6                     __end_of_INT_CallBack:
  9940                           
  9941                           	psect	text86
  9942  07A7                     __ptext86:	
  9943 ;; *************** function _INT_DefaultInterruptHandler *****************
  9944 ;; Defined at:
  9945 ;;		line 54 in file "mcc_generated_files/ext_int.c"
  9946 ;; Parameters:    Size  Location     Type
  9947 ;;		None
  9948 ;; Auto vars:     Size  Location     Type
  9949 ;;		None
  9950 ;; Return value:  Size  Location     Type
  9951 ;;                  1    wreg      void 
  9952 ;; Registers used:
  9953 ;;		None
  9954 ;; Tracked objects:
  9955 ;;		On entry : 0/0
  9956 ;;		On exit  : 0/0
  9957 ;;		Unchanged: 0/0
  9958 ;; Data sizes:     COMMON   BANK0   BANK1   BANK2   BANK3   BANK4   BANK5   BANK6   BANK7   BANK8   BANK9  BANK10  BANK1
      +1  BANK12
  9959 ;;      Params:         0       0       0       0       0       0       0       0       0       0       0       0       
      +0       0
  9960 ;;      Locals:         0       0       0       0       0       0       0       0       0       0       0       0       
      +0       0
  9961 ;;      Temps:          0       0       0       0       0       0       0       0       0       0       0       0       
      +0       0
  9962 ;;      Totals:         0       0       0       0       0       0       0       0       0       0       0       0       
      +0       0
  9963 ;;Total ram usage:        0 bytes
  9964 ;; Hardware stack levels used: 1
  9965 ;; This function calls:
  9966 ;;		Nothing
  9967 ;; This function is called by:
  9968 ;;		_EXT_INT_Initialize
  9969 ;;		_INT_CallBack
  9970 ;; This function uses a non-reentrant model
  9971 ;;
  9972                           
  9973                           
  9974                           ;psect for function _INT_DefaultInterruptHandler
  9975  07A7                     _INT_DefaultInterruptHandler:
  9976  07A7                     i1l267:	
  9977                           ;incstack = 0
  9978                           ; Regs used in _INT_DefaultInterruptHandler: []
  9979                           
  9980  07A7  0008               	return
  9981  07A8                     __end_of_INT_DefaultInterruptHandler:
  9982                           
  9983                           	psect	text87
  9984  07A8                     __ptext87:	
  9985 ;; *************** function _WakeUpInterrupt *****************
  9986 ;; Defined at:
  9987 ;;		line 186 in file "main.c"
  9988 ;; Parameters:    Size  Location     Type
  9989 ;;		None
  9990 ;; Auto vars:     Size  Location     Type
  9991 ;;		None
  9992 ;; Return value:  Size  Location     Type
  9993 ;;                  1    wreg      void 
  9994 ;; Registers used:
  9995 ;;		None
  9996 ;; Tracked objects:
  9997 ;;		On entry : 0/0
  9998 ;;		On exit  : 0/0
  9999 ;;		Unchanged: 0/0
 10000 ;; Data sizes:     COMMON   BANK0   BANK1   BANK2   BANK3   BANK4   BANK5   BANK6   BANK7   BANK8   BANK9  BANK10  BANK1
      +1  BANK12
 10001 ;;      Params:         0       0       0       0       0       0       0       0       0       0       0       0       
      +0       0
 10002 ;;      Locals:         0       0       0       0       0       0       0       0       0       0       0       0       
      +0       0
 10003 ;;      Temps:          0       0       0       0       0       0       0       0       0       0       0       0       
      +0       0
 10004 ;;      Totals:         0       0       0       0       0       0       0       0       0       0       0       0       
      +0       0
 10005 ;;Total ram usage:        0 bytes
 10006 ;; Hardware stack levels used: 1
 10007 ;; This function calls:
 10008 ;;		Nothing
 10009 ;; This function is called by:
 10010 ;;		_main
 10011 ;;		_INT_CallBack
 10012 ;; This function uses a non-reentrant model
 10013 ;;
 10014                           
 10015                           
 10016                           ;psect for function _WakeUpInterrupt
 10017  07A8                     _WakeUpInterrupt:
 10018  07A8                     i1l816:	
 10019                           ;incstack = 0
 10020                           ; Regs used in _WakeUpInterrupt: []
 10021                           
 10022  07A8  0008               	return
 10023  07A9                     __end_of_WakeUpInterrupt:
 10024  007E                     btemp	set	126	;btemp
 10025  007E                     int$flags	set	126
 10026  007E                     wtemp0	set	126
 10027                           
 10028                           	psect	config
 10029                           
 10030                           ;Config register CONFIG1 @ 0x8007
 10031                           ;	Oscillator Selection
 10032                           ;	FOSC = INTOSC, INTOSC oscillator: I/O function on CLKIN pin
 10033                           ;	Watchdog Timer Enable
 10034                           ;	WDTE = OFF, WDT disabled
 10035                           ;	Power-up Timer Enable
 10036                           ;	PWRTE = OFF, PWRT disabled
 10037                           ;	MCLR Pin Function Select
 10038                           ;	MCLRE = ON, MCLR/VPP pin function is MCLR
 10039                           ;	Flash Program Memory Code Protection
 10040                           ;	CP = OFF, Program memory code protection is disabled
 10041                           ;	Data Memory Code Protection
 10042                           ;	CPD = OFF, Data memory code protection is disabled
 10043                           ;	Brown-out Reset Enable
 10044                           ;	BOREN = ON, Brown-out Reset enabled
 10045                           ;	Clock Out Enable
 10046                           ;	CLKOUTEN = OFF, CLKOUT function is disabled. I/O or oscillator function on the CLKOUT 
      +                          pin
 10047                           ;	Internal/External Switchover
 10048                           ;	IESO = ON, Internal/External Switchover mode is enabled
 10049                           ;	Fail-Safe Clock Monitor Enable
 10050                           ;	FCMEN = ON, Fail-Safe Clock Monitor is enabled
 10051  8007                     	org	32775
 10052  8007  3FE4               	dw	16356
 10053                           
 10054                           ;Config register CONFIG2 @ 0x8008
 10055                           ;	Flash Memory Self-Write Protection
 10056                           ;	WRT = OFF, Write protection off
 10057                           ;	PLL Enable
 10058                           ;	PLLEN = ON, 4x PLL enabled
 10059                           ;	Stack Overflow/Underflow Reset Enable
 10060                           ;	STVREN = ON, Stack Overflow or Underflow will cause a Reset
 10061                           ;	Brown-out Reset Voltage Selection
 10062                           ;	BORV = LO, Brown-out Reset Voltage (Vbor), low trip point selected.
 10063                           ;	Low-Voltage Programming Enable
 10064                           ;	LVP = ON, Low-voltage programming enabled
 10065  8008                     	org	32776
 10066  8008  3FFF               	dw	16383

Data Sizes:
    Strings     0
    Constant    32
    Data        0
    BSS         35
    Persistent  34
    Stack       0

Auto Spaces:
    Space          Size  Autos    Used
    COMMON           14      7      11
    BANK0            80     29      62
    BANK1            80      0       0
    BANK2            80      0       0
    BANK3            80      0       0
    BANK4            80      0       0
    BANK5            80      0       0
    BANK6            80      0       0
    BANK7            80      0       0
    BANK8            80      0       0
    BANK9            80      0       0
    BANK10           80      0       0
    BANK11           80      0       0
    BANK12           48      0       0

Pointer List with Targets:

    I2C1_Read1ByteRegister@returnValue.data	PTR unsigned char  size(1) Largest target is 0

    I2C1_Read2ByteRegister@returnValue.data	PTR unsigned char  size(1) Largest target is 0

    I2C1_Write1ByteRegister@data.data	PTR unsigned char  size(1) Largest target is 0

    I2C1_Write2ByteRegister@data.data	PTR unsigned char  size(1) Largest target is 0

    I2C1_DO_TX$2264$0	PTR void  size(1) Largest target is 4
		 -> I2C1_ReadDataBlock@bufferBlock(COMMON[3]), I2C1_Write2ByteRegister@data(COMMON[2]), I2C1_Write1ByteRegister@data(BANK0[1]), I2C1_Read2ByteRegister@returnValue(COMMON[2]), 
		 -> NULL(NULL[0]), I2C1_Read1ByteRegister@returnValue(BANK0[1]), 

    I2C1_DO_TX$2269	PTR void  size(1) Largest target is 4
		 -> I2C1_ReadDataBlock@bufferBlock(COMMON[3]), I2C1_Write2ByteRegister@data(COMMON[2]), I2C1_Write1ByteRegister@data(BANK0[1]), I2C1_Read2ByteRegister@returnValue(COMMON[2]), 
		 -> NULL(NULL[0]), I2C1_Read1ByteRegister@returnValue(BANK0[1]), 

    I2C1_DO_TX$2264	PTR FTN(PTR void ,)enum E360 size(2) Largest target is 1
		 -> I2C1_CallbackReturnReset(), I2C1_CallbackReturnStop(), Absolute function(), rdBlkRegCompleteHandler(), 
		 -> wr2RegCompleteHandler(), wr1RegCompleteHandler(), rd2RegCompleteHandler(), rd1RegCompleteHandler(), 

    I2C1_MasterFsm$2263	const PTR FTN()enum E3009 size(2) Largest target is 1
		 -> I2C1_DO_ADDRESS_NACK(), I2C1_DO_RESET(), I2C1_DO_RX_NACK_RESTART(), I2C1_DO_RX_NACK_STOP(), 
		 -> I2C1_DO_RX_ACK(), I2C1_DO_SEND_STOP(), I2C1_DO_SEND_RESTART(), I2C1_DO_SEND_RESTART_WRITE(), 
		 -> I2C1_DO_SEND_RESTART_READ(), I2C1_DO_TX_EMPTY(), I2C1_DO_RCEN(), I2C1_DO_RX(), 
		 -> I2C1_DO_TX(), I2C1_DO_SEND_ADR_WRITE(), I2C1_DO_SEND_ADR_READ(), I2C1_DO_IDLE(), 

    I2C1_CallbackReturnStop@funPtr	PTR void  size(1) Largest target is 4
		 -> I2C1_ReadDataBlock@bufferBlock(COMMON[3]), I2C1_Write2ByteRegister@data(COMMON[2]), I2C1_Write1ByteRegister@data(BANK0[1]), I2C1_Read2ByteRegister@returnValue(COMMON[2]), 
		 -> NULL(NULL[0]), I2C1_Read1ByteRegister@returnValue(BANK0[1]), 

    I2C1_CallbackReturnReset@funPtr	PTR void  size(1) Largest target is 4
		 -> I2C1_ReadDataBlock@bufferBlock(COMMON[3]), I2C1_Write2ByteRegister@data(COMMON[2]), I2C1_Write1ByteRegister@data(BANK0[1]), I2C1_Read2ByteRegister@returnValue(COMMON[2]), 
		 -> NULL(NULL[0]), I2C1_Read1ByteRegister@returnValue(BANK0[1]), 

    cb$0	PTR void  size(1) Largest target is 4
		 -> I2C1_ReadDataBlock@bufferBlock(COMMON[3]), I2C1_Write2ByteRegister@data(COMMON[2]), I2C1_Write1ByteRegister@data(BANK0[1]), I2C1_Read2ByteRegister@returnValue(COMMON[2]), 
		 -> NULL(NULL[0]), I2C1_Read1ByteRegister@returnValue(BANK0[1]), 

    cb$0	PTR void  size(1) Largest target is 4
		 -> I2C1_ReadDataBlock@bufferBlock(COMMON[3]), I2C1_Write2ByteRegister@data(COMMON[2]), I2C1_Write1ByteRegister@data(BANK0[1]), I2C1_Read2ByteRegister@returnValue(COMMON[2]), 
		 -> NULL(NULL[0]), I2C1_Read1ByteRegister@returnValue(BANK0[1]), 

    S923$0$0	PTR void  size(1) Largest target is 4
		 -> I2C1_ReadDataBlock@bufferBlock(COMMON[3]), I2C1_Write2ByteRegister@data(COMMON[2]), I2C1_Write1ByteRegister@data(BANK0[1]), I2C1_Read2ByteRegister@returnValue(COMMON[2]), 
		 -> NULL(NULL[0]), I2C1_Read1ByteRegister@returnValue(BANK0[1]), 

    TMR4_SetInterruptHandler@InterruptHandler	PTR FTN()void  size(2) Largest target is 1
		 -> TMR4_DefaultInterruptHandler(), TimerInterrupt(), 

    TMR4_InterruptHandler	PTR FTN()void  size(2) Largest target is 1
		 -> TMR4_DefaultInterruptHandler(), TimerInterrupt(), Absolute function(), 

    I2C1_SetCallback@ptr	PTR void  size(1) Largest target is 4
		 -> I2C1_ReadDataBlock@bufferBlock(COMMON[3]), I2C1_Write2ByteRegister@data(COMMON[2]), I2C1_Write1ByteRegister@data(BANK0[1]), I2C1_Read2ByteRegister@returnValue(COMMON[2]), 
		 -> NULL(NULL[0]), I2C1_Read1ByteRegister@returnValue(BANK0[1]), 

    I2C1_SetCallback@cb	PTR FTN(PTR void ,)enum E360 size(2) Largest target is 1
		 -> Absolute function(), rdBlkRegCompleteHandler(), wr2RegCompleteHandler(), wr1RegCompleteHandler(), 
		 -> rd2RegCompleteHandler(), rd1RegCompleteHandler(), 

    I2C1_SetAddressNackCallback@ptr	PTR void  size(1) Largest target is 0
		 -> NULL(NULL[0]), 

    I2C1_SetAddressNackCallback@cb	PTR FTN(PTR void ,)enum E360 size(2) Largest target is 1
		 -> Absolute function(), 

    I2C1_SetDataCompleteCallback@ptr	PTR void  size(1) Largest target is 4
		 -> I2C1_ReadDataBlock@bufferBlock(COMMON[3]), I2C1_Write2ByteRegister@data(COMMON[2]), I2C1_Write1ByteRegister@data(BANK0[1]), I2C1_Read2ByteRegister@returnValue(COMMON[2]), 
		 -> NULL(NULL[0]), I2C1_Read1ByteRegister@returnValue(BANK0[1]), 

    I2C1_SetDataCompleteCallback@cb	PTR FTN(PTR void ,)enum E360 size(2) Largest target is 1
		 -> Absolute function(), rdBlkRegCompleteHandler(), wr2RegCompleteHandler(), wr1RegCompleteHandler(), 
		 -> rd2RegCompleteHandler(), rd1RegCompleteHandler(), 

    I2C1_SetBuffer@buffer	PTR void  size(1) Largest target is 4
		 -> I2C1_ReadDataBlock@reg(COMMON[1]), I2C1_ReadDataBlock@bufferBlock(COMMON[3]), I2C1_Write2ByteRegister@reg(COMMON[1]), I2C1_Write2ByteRegister@data(COMMON[2]), 
		 -> I2C1_Write1ByteRegister@reg(BANK0[1]), I2C1_Write1ByteRegister@data(BANK0[1]), I2C1_Read2ByteRegister@reg(COMMON[1]), I2C1_Read2ByteRegister@returnValue(COMMON[2]), 
		 -> NULL(NULL[0]), I2C1_Read1ByteRegister@reg(BANK0[1]), I2C1_Read1ByteRegister@returnValue(BANK0[1]), 

    S923$data_ptr	PTR unsigned char  size(1) Largest target is 4
		 -> I2C1_ReadDataBlock@reg(COMMON[1]), I2C1_ReadDataBlock@bufferBlock(COMMON[3]), I2C1_Write2ByteRegister@reg(COMMON[1]), I2C1_Write2ByteRegister@data(COMMON[2]), 
		 -> I2C1_Write1ByteRegister@reg(BANK0[1]), I2C1_Write1ByteRegister@data(BANK0[1]), I2C1_Read2ByteRegister@reg(COMMON[1]), I2C1_Read2ByteRegister@returnValue(COMMON[2]), 
		 -> NULL(NULL[0]), I2C1_Read1ByteRegister@reg(BANK0[1]), I2C1_Read1ByteRegister@returnValue(BANK0[1]), 

    I2C1_Status.data_ptr	PTR unsigned char  size(1) Largest target is 4
		 -> I2C1_ReadDataBlock@reg(COMMON[1]), I2C1_ReadDataBlock@bufferBlock(COMMON[3]), I2C1_Write2ByteRegister@reg(COMMON[1]), I2C1_Write2ByteRegister@data(COMMON[2]), 
		 -> I2C1_Write1ByteRegister@reg(BANK0[1]), I2C1_Write1ByteRegister@data(BANK0[1]), I2C1_Read2ByteRegister@reg(COMMON[1]), I2C1_Read2ByteRegister@returnValue(COMMON[2]), 
		 -> NULL(NULL[0]), I2C1_Read1ByteRegister@reg(BANK0[1]), I2C1_Read1ByteRegister@returnValue(BANK0[1]), 

    S923$callbackPayload	PTR void [6] size(1) Largest target is 4
		 -> I2C1_ReadDataBlock@bufferBlock(COMMON[3]), I2C1_Write2ByteRegister@data(COMMON[2]), I2C1_Write1ByteRegister@data(BANK0[1]), I2C1_Read2ByteRegister@returnValue(COMMON[2]), 
		 -> NULL(NULL[0]), I2C1_Read1ByteRegister@returnValue(BANK0[1]), 

    I2C1_Status.callbackPayload	PTR void [6] size(1) Largest target is 4
		 -> I2C1_ReadDataBlock@bufferBlock(COMMON[3]), I2C1_Write2ByteRegister@data(COMMON[2]), I2C1_Write1ByteRegister@data(BANK0[1]), I2C1_Read2ByteRegister@returnValue(COMMON[2]), 
		 -> NULL(NULL[0]), I2C1_Read1ByteRegister@returnValue(BANK0[1]), 

    S923$callbackTable	PTR FTN(PTR void ,)enum E360[6] size(2) Largest target is 1
		 -> I2C1_CallbackReturnReset(), I2C1_CallbackReturnStop(), Absolute function(), rdBlkRegCompleteHandler(), 
		 -> wr2RegCompleteHandler(), wr1RegCompleteHandler(), rd2RegCompleteHandler(), rd1RegCompleteHandler(), 

    I2C1_Status.callbackTable	PTR FTN(PTR void ,)enum E360[6] size(2) Largest target is 1
		 -> I2C1_CallbackReturnReset(), I2C1_CallbackReturnStop(), Absolute function(), rdBlkRegCompleteHandler(), 
		 -> wr2RegCompleteHandler(), wr1RegCompleteHandler(), rd2RegCompleteHandler(), rd1RegCompleteHandler(), 

    i2c1_fsmStateTable	const PTR FTN()enum E3009[16] size(2) Largest target is 1
		 -> I2C1_DO_ADDRESS_NACK(), I2C1_DO_RESET(), I2C1_DO_RX_NACK_RESTART(), I2C1_DO_RX_NACK_STOP(), 
		 -> I2C1_DO_RX_ACK(), I2C1_DO_SEND_STOP(), I2C1_DO_SEND_RESTART(), I2C1_DO_SEND_RESTART_WRITE(), 
		 -> I2C1_DO_SEND_RESTART_READ(), I2C1_DO_TX_EMPTY(), I2C1_DO_RCEN(), I2C1_DO_RX(), 
		 -> I2C1_DO_TX(), I2C1_DO_SEND_ADR_WRITE(), I2C1_DO_SEND_ADR_READ(), I2C1_DO_IDLE(), 

    IOCBF7_SetInterruptHandler@InterruptHandler	PTR FTN()void  size(2) Largest target is 1
		 -> ButtonInterrupt(), IOCBF7_DefaultInterruptHandler(), 

    IOCBF7_InterruptHandler	PTR FTN()void  size(2) Largest target is 1
		 -> ButtonInterrupt(), IOCBF7_DefaultInterruptHandler(), Absolute function(), 

    INT_SetInterruptHandler@InterruptHandler	PTR FTN()void  size(2) Largest target is 1
		 -> WakeUpInterrupt(), INT_DefaultInterruptHandler(), 

    INT_InterruptHandler	PTR FTN()void  size(2) Largest target is 1
		 -> WakeUpInterrupt(), INT_DefaultInterruptHandler(), Absolute function(), 

    rdBlkRegCompleteHandler@ptr.data	PTR unsigned char  size(1) Largest target is 0

    rdBlkRegCompleteHandler@ptr	PTR void  size(1) Largest target is 4
		 -> I2C1_ReadDataBlock@bufferBlock(COMMON[3]), I2C1_Write2ByteRegister@data(COMMON[2]), I2C1_Write1ByteRegister@data(BANK0[1]), I2C1_Read2ByteRegister@returnValue(COMMON[2]), 
		 -> NULL(NULL[0]), I2C1_Read1ByteRegister@returnValue(BANK0[1]), 

    wr2RegCompleteHandler@ptr	PTR void  size(1) Largest target is 4
		 -> I2C1_ReadDataBlock@bufferBlock(COMMON[3]), I2C1_Write2ByteRegister@data(COMMON[2]), I2C1_Write1ByteRegister@data(BANK0[1]), I2C1_Read2ByteRegister@returnValue(COMMON[2]), 
		 -> NULL(NULL[0]), I2C1_Read1ByteRegister@returnValue(BANK0[1]), 

    wr1RegCompleteHandler@ptr	PTR void  size(1) Largest target is 4
		 -> I2C1_ReadDataBlock@bufferBlock(COMMON[3]), I2C1_Write2ByteRegister@data(COMMON[2]), I2C1_Write1ByteRegister@data(BANK0[1]), I2C1_Read2ByteRegister@returnValue(COMMON[2]), 
		 -> NULL(NULL[0]), I2C1_Read1ByteRegister@returnValue(BANK0[1]), 

    rd2RegCompleteHandler@ptr	PTR void  size(1) Largest target is 4
		 -> I2C1_ReadDataBlock@bufferBlock(COMMON[3]), I2C1_Write2ByteRegister@data(COMMON[2]), I2C1_Write1ByteRegister@data(BANK0[1]), I2C1_Read2ByteRegister@returnValue(COMMON[2]), 
		 -> NULL(NULL[0]), I2C1_Read1ByteRegister@returnValue(BANK0[1]), 

    rd1RegCompleteHandler@ptr	PTR void  size(1) Largest target is 4
		 -> I2C1_ReadDataBlock@bufferBlock(COMMON[3]), I2C1_Write2ByteRegister@data(COMMON[2]), I2C1_Write1ByteRegister@data(BANK0[1]), I2C1_Read2ByteRegister@returnValue(COMMON[2]), 
		 -> NULL(NULL[0]), I2C1_Read1ByteRegister@returnValue(BANK0[1]), 

    S110$data	PTR unsigned char  size(1) Largest target is 0

    bufferBlock.data	PTR unsigned char  size(1) Largest target is 0


Critical Paths under _main in COMMON

    None.

Critical Paths under _INTERRUPT_InterruptManager in COMMON

    _ButtonInterrupt->_patronus
    _patronus->i1_EPWM1_LoadDutyValue
    _patronus->i1_EPWM2_LoadDutyValue
    _patronus->i1_PWM4_LoadDutyValue

Critical Paths under _main in BANK0

    _main->_I2C1_Read1ByteRegister
    _main->_I2C1_Write1ByteRegister
    _TMR4_Initialize->_TMR4_SetInterruptHandler
    _PIN_MANAGER_Initialize->_IOCBF7_SetInterruptHandler
    _EXT_INT_Initialize->_INT_SetInterruptHandler
    _I2C1_SetAddressNackCallback->_I2C1_SetCallback
    _I2C1_MasterWrite->_I2C1_MasterOperation
    _I2C1_Poller->_I2C1_MasterFsm
    _I2C1_MasterFsm->_I2C1_DO_ADDRESS_NACK
    _I2C1_MasterFsm->_I2C1_DO_RX
    _I2C1_MasterFsm->_I2C1_DO_TX
    _I2C1_MasterFsm->_I2C1_DO_TX_EMPTY
    _I2C1_DO_TX_EMPTY->_I2C1_CallbackReturnReset
    _I2C1_DO_TX_EMPTY->_I2C1_CallbackReturnStop
    _I2C1_DO_TX_EMPTY->_rd1RegCompleteHandler
    _I2C1_DO_TX_EMPTY->_rd2RegCompleteHandler
    _I2C1_DO_TX_EMPTY->_rdBlkRegCompleteHandler
    _I2C1_DO_TX_EMPTY->_wr1RegCompleteHandler
    _I2C1_DO_TX_EMPTY->_wr2RegCompleteHandler
    _I2C1_DO_TX->_I2C1_CallbackReturnReset
    _I2C1_DO_TX->_I2C1_CallbackReturnStop
    _I2C1_DO_TX->_rd1RegCompleteHandler
    _I2C1_DO_TX->_rd2RegCompleteHandler
    _I2C1_DO_TX->_rdBlkRegCompleteHandler
    _I2C1_DO_TX->_wr1RegCompleteHandler
    _I2C1_DO_TX->_wr2RegCompleteHandler
    _I2C1_DO_SEND_ADR_WRITE->_I2C1_MasterSendTxData
    _I2C1_DO_RX->_I2C1_CallbackReturnReset
    _I2C1_DO_RX->_I2C1_CallbackReturnStop
    _I2C1_DO_RX->_rd1RegCompleteHandler
    _I2C1_DO_RX->_rd2RegCompleteHandler
    _I2C1_DO_RX->_rdBlkRegCompleteHandler
    _I2C1_DO_RX->_wr1RegCompleteHandler
    _I2C1_DO_RX->_wr2RegCompleteHandler
    _I2C1_DO_ADDRESS_NACK->_I2C1_CallbackReturnReset
    _I2C1_DO_ADDRESS_NACK->_I2C1_CallbackReturnStop
    _I2C1_DO_ADDRESS_NACK->_rd1RegCompleteHandler
    _I2C1_DO_ADDRESS_NACK->_rd2RegCompleteHandler
    _I2C1_DO_ADDRESS_NACK->_rdBlkRegCompleteHandler
    _I2C1_DO_ADDRESS_NACK->_wr1RegCompleteHandler
    _I2C1_DO_ADDRESS_NACK->_wr2RegCompleteHandler
    _wr2RegCompleteHandler->_I2C1_SetDataCompleteCallback
    _wr1RegCompleteHandler->_I2C1_SetDataCompleteCallback
    _rdBlkRegCompleteHandler->_I2C1_SetDataCompleteCallback
    _rd2RegCompleteHandler->_I2C1_SetDataCompleteCallback
    _rd1RegCompleteHandler->_I2C1_SetDataCompleteCallback
    _I2C1_SetDataCompleteCallback->_I2C1_SetCallback

Critical Paths under _INTERRUPT_InterruptManager in BANK0

    None.

Critical Paths under _main in BANK1

    None.

Critical Paths under _INTERRUPT_InterruptManager in BANK1

    None.

Critical Paths under _main in BANK2

    None.

Critical Paths under _INTERRUPT_InterruptManager in BANK2

    None.

Critical Paths under _main in BANK3

    None.

Critical Paths under _INTERRUPT_InterruptManager in BANK3

    None.

Critical Paths under _main in BANK4

    None.

Critical Paths under _INTERRUPT_InterruptManager in BANK4

    None.

Critical Paths under _main in BANK5

    None.

Critical Paths under _INTERRUPT_InterruptManager in BANK5

    None.

Critical Paths under _main in BANK6

    None.

Critical Paths under _INTERRUPT_InterruptManager in BANK6

    None.

Critical Paths under _main in BANK7

    None.

Critical Paths under _INTERRUPT_InterruptManager in BANK7

    None.

Critical Paths under _main in BANK8

    None.

Critical Paths under _INTERRUPT_InterruptManager in BANK8

    None.

Critical Paths under _main in BANK9

    None.

Critical Paths under _INTERRUPT_InterruptManager in BANK9

    None.

Critical Paths under _main in BANK10

    None.

Critical Paths under _INTERRUPT_InterruptManager in BANK10

    None.

Critical Paths under _main in BANK11

    None.

Critical Paths under _INTERRUPT_InterruptManager in BANK11

    None.

Critical Paths under _main in BANK12

    None.

Critical Paths under _INTERRUPT_InterruptManager in BANK12

    None.

Call Graph Tables:

 ---------------------------------------------------------------------------------
 (Depth) Function   	        Calls       Base Space   Used Autos Params    Refs
 ---------------------------------------------------------------------------------
 (0) _main                                                 6     6      0  196388
                                             23 BANK0      6     6      0
                 _DELAY_milliseconds
                _EPWM1_LoadDutyValue
                _EPWM2_LoadDutyValue
             _I2C1_Read1ByteRegister
            _I2C1_Write1ByteRegister
            _INT_SetInterruptHandler
         _IOCBF7_SetInterruptHandler
                 _PWM4_LoadDutyValue
                  _SYSTEM_Initialize
           _TMR4_SetInterruptHandler
 ---------------------------------------------------------------------------------
 (1) _SYSTEM_Initialize                                    0     0      0     633
                   _EPWM1_Initialize
                   _EPWM2_Initialize
                 _EXT_INT_Initialize
                    _I2C1_Initialize
              _OSCILLATOR_Initialize
             _PIN_MANAGER_Initialize
                    _PWM4_Initialize
                    _TMR2_Initialize
                    _TMR4_Initialize
                     _WDT_Initialize
 ---------------------------------------------------------------------------------
 (2) _WDT_Initialize                                       0     0      0       0
 ---------------------------------------------------------------------------------
 (2) _TMR4_Initialize                                      0     0      0     211
           _TMR4_SetInterruptHandler
 ---------------------------------------------------------------------------------
 (1) _TMR4_SetInterruptHandler                             2     0      2     211
                                              0 BANK0      2     0      2
 ---------------------------------------------------------------------------------
 (2) _TMR2_Initialize                                      0     0      0       0
 ---------------------------------------------------------------------------------
 (2) _PWM4_Initialize                                      0     0      0       0
 ---------------------------------------------------------------------------------
 (2) _PIN_MANAGER_Initialize                               0     0      0     211
         _IOCBF7_SetInterruptHandler
 ---------------------------------------------------------------------------------
 (3) _IOCBF7_SetInterruptHandler                           2     0      2     211
                                              0 BANK0      2     0      2
 ---------------------------------------------------------------------------------
 (2) _OSCILLATOR_Initialize                                0     0      0       0
 ---------------------------------------------------------------------------------
 (2) _I2C1_Initialize                                      0     0      0       0
 ---------------------------------------------------------------------------------
 (2) _EXT_INT_Initialize                                   0     0      0     211
            _INT_SetInterruptHandler
 ---------------------------------------------------------------------------------
 (3) _INT_SetInterruptHandler                              2     0      2     211
                                              0 BANK0      2     0      2
 ---------------------------------------------------------------------------------
 (2) _EPWM2_Initialize                                     0     0      0       0
 ---------------------------------------------------------------------------------
 (2) _EPWM1_Initialize                                     0     0      0       0
 ---------------------------------------------------------------------------------
 (1) _PWM4_LoadDutyValue                                   4     2      2     522
                                              0 BANK0      4     2      2
 ---------------------------------------------------------------------------------
 (1) _I2C1_Write1ByteRegister                              4     2      2   96717
                                             19 BANK0      4     2      2
                         _I2C1_Close
                   _I2C1_MasterWrite
                          _I2C1_Open
        _I2C1_SetAddressNackCallback
                     _I2C1_SetBuffer
       _I2C1_SetDataCompleteCallback
 ---------------------------------------------------------------------------------
 (1) _I2C1_Read1ByteRegister                               4     3      1   96121
                                             19 BANK0      4     3      1
                         _I2C1_Close
                   _I2C1_MasterWrite
                          _I2C1_Open
        _I2C1_SetAddressNackCallback
                     _I2C1_SetBuffer
       _I2C1_SetDataCompleteCallback
 ---------------------------------------------------------------------------------
 (2) _I2C1_SetAddressNackCallback                          4     1      3    2259
                                              5 BANK0      4     1      3
                   _I2C1_SetCallback
 ---------------------------------------------------------------------------------
 (2) _I2C1_Open                                            3     3      0      68
                                              0 BANK0      3     3      0
                _I2C1_MasterClearIrq
                    _I2C1_MasterOpen
 ---------------------------------------------------------------------------------
 (3) _I2C1_MasterOpen                                      0     0      0       0
 ---------------------------------------------------------------------------------
 (2) _I2C1_MasterWrite                                     0     0      0   88825
               _I2C1_MasterOperation
 ---------------------------------------------------------------------------------
 (3) _I2C1_MasterOperation                                 3     3      0   88825
                                             16 BANK0      3     3      0
                   _I2C1_MasterStart
                        _I2C1_Poller
 ---------------------------------------------------------------------------------
 (4) _I2C1_Poller                                          0     0      0   88757
                     _I2C1_MasterFsm
            _I2C1_MasterWaitForEvent
 ---------------------------------------------------------------------------------
 (5) _I2C1_MasterWaitForEvent                              0     0      0       0
 ---------------------------------------------------------------------------------
 (5) _I2C1_MasterFsm                                       3     3      0   88757
                                             13 BANK0      3     3      0
               _I2C1_DO_ADDRESS_NACK *
                       _I2C1_DO_IDLE *
                       _I2C1_DO_RCEN *
                      _I2C1_DO_RESET *
                         _I2C1_DO_RX *
                     _I2C1_DO_RX_ACK *
            _I2C1_DO_RX_NACK_RESTART *
               _I2C1_DO_RX_NACK_STOP *
              _I2C1_DO_SEND_ADR_READ *
             _I2C1_DO_SEND_ADR_WRITE *
               _I2C1_DO_SEND_RESTART *
          _I2C1_DO_SEND_RESTART_READ *
         _I2C1_DO_SEND_RESTART_WRITE *
                  _I2C1_DO_SEND_STOP *
                         _I2C1_DO_TX *
                   _I2C1_DO_TX_EMPTY *
                _I2C1_MasterClearIrq
                  _I2C1_MasterIsNack
 ---------------------------------------------------------------------------------
 (6) _I2C1_DO_TX_EMPTY                                     3     3      0   22166
                                             10 BANK0      3     3      0
                   Absolute function *
           _I2C1_CallbackReturnReset *
            _I2C1_CallbackReturnStop *
               _I2C1_DO_SEND_RESTART
                  _I2C1_DO_SEND_STOP
                  _I2C1_MasterSetIrq
              _rd1RegCompleteHandler *
              _rd2RegCompleteHandler *
            _rdBlkRegCompleteHandler *
              _wr1RegCompleteHandler *
              _wr2RegCompleteHandler *
 ---------------------------------------------------------------------------------
 (7) _I2C1_MasterSetIrq                                    0     0      0       0
 ---------------------------------------------------------------------------------
 (6) _I2C1_DO_TX                                           3     3      0   22197
                                             10 BANK0      3     3      0
                   Absolute function *
           _I2C1_CallbackReturnReset *
            _I2C1_CallbackReturnStop *
          _I2C1_DO_SEND_RESTART_READ
         _I2C1_DO_SEND_RESTART_WRITE
                  _I2C1_DO_SEND_STOP
                  _I2C1_MasterIsNack
              _I2C1_MasterSendTxData
              _rd1RegCompleteHandler *
              _rd2RegCompleteHandler *
            _rdBlkRegCompleteHandler *
              _wr1RegCompleteHandler *
              _wr2RegCompleteHandler *
 ---------------------------------------------------------------------------------
 (6) _I2C1_MasterIsNack                                    0     0      0       0
 ---------------------------------------------------------------------------------
 (7) _I2C1_DO_SEND_RESTART_WRITE                           0     0      0       0
           _I2C1_MasterEnableRestart
 ---------------------------------------------------------------------------------
 (7) _I2C1_DO_SEND_RESTART_READ                            0     0      0       0
           _I2C1_MasterEnableRestart
 ---------------------------------------------------------------------------------
 (6) _I2C1_DO_SEND_ADR_WRITE                               0     0      0      31
              _I2C1_MasterSendTxData
 ---------------------------------------------------------------------------------
 (6) _I2C1_DO_SEND_ADR_READ                                0     0      0      31
              _I2C1_MasterSendTxData
 ---------------------------------------------------------------------------------
 (7) _I2C1_MasterSendTxData                                1     1      0      31
                                              0 BANK0      1     1      0
 ---------------------------------------------------------------------------------
 (6) _I2C1_DO_RX_ACK                                       0     0      0       0
                 _I2C1_MasterSendAck
 ---------------------------------------------------------------------------------
 (6) _I2C1_DO_RX                                           3     3      0   22166
                                             10 BANK0      3     3      0
                   Absolute function *
           _I2C1_CallbackReturnReset *
            _I2C1_CallbackReturnStop *
            _I2C1_DO_RX_NACK_RESTART
               _I2C1_DO_RX_NACK_STOP
               _I2C1_MasterGetRxData
                 _I2C1_MasterSendAck
              _rd1RegCompleteHandler *
              _rd2RegCompleteHandler *
            _rdBlkRegCompleteHandler *
              _wr1RegCompleteHandler *
              _wr2RegCompleteHandler *
 ---------------------------------------------------------------------------------
 (7) _I2C1_MasterSendAck                                   0     0      0       0
 ---------------------------------------------------------------------------------
 (7) _I2C1_MasterGetRxData                                 0     0      0       0
 ---------------------------------------------------------------------------------
 (6) _I2C1_DO_RX_NACK_STOP                                 0     0      0       0
                _I2C1_MasterSendNack
 ---------------------------------------------------------------------------------
 (6) _I2C1_DO_RX_NACK_RESTART                              0     0      0       0
                _I2C1_MasterSendNack
 ---------------------------------------------------------------------------------
 (7) _I2C1_MasterSendNack                                  0     0      0       0
 ---------------------------------------------------------------------------------
 (6) _I2C1_DO_RESET                                        0     0      0       0
 ---------------------------------------------------------------------------------
 (6) _I2C1_DO_RCEN                                         0     0      0       0
                 _I2C1_MasterStartRx
 ---------------------------------------------------------------------------------
 (7) _I2C1_MasterStartRx                                   0     0      0       0
 ---------------------------------------------------------------------------------
 (6) _I2C1_DO_IDLE                                         0     0      0       0
 ---------------------------------------------------------------------------------
 (6) _I2C1_DO_ADDRESS_NACK                                 3     3      0   22166
                                             10 BANK0      3     3      0
                   Absolute function *
           _I2C1_CallbackReturnReset *
            _I2C1_CallbackReturnStop *
               _I2C1_DO_SEND_RESTART
                  _I2C1_DO_SEND_STOP
              _rd1RegCompleteHandler *
              _rd2RegCompleteHandler *
            _rdBlkRegCompleteHandler *
              _wr1RegCompleteHandler *
              _wr2RegCompleteHandler *
 ---------------------------------------------------------------------------------
 (7) _wr2RegCompleteHandler                                1     0      1    4362
                                              9 BANK0      1     0      1
                     _I2C1_SetBuffer
       _I2C1_SetDataCompleteCallback
 ---------------------------------------------------------------------------------
 (7) _wr1RegCompleteHandler                                1     0      1    4362
                                              9 BANK0      1     0      1
                     _I2C1_SetBuffer
       _I2C1_SetDataCompleteCallback
 ---------------------------------------------------------------------------------
 (7) _rdBlkRegCompleteHandler                              1     0      1    4393
                                              9 BANK0      1     0      1
                     _I2C1_SetBuffer
       _I2C1_SetDataCompleteCallback
 ---------------------------------------------------------------------------------
 (7) _rd2RegCompleteHandler                                1     0      1    4362
                                              9 BANK0      1     0      1
                     _I2C1_SetBuffer
       _I2C1_SetDataCompleteCallback
 ---------------------------------------------------------------------------------
 (7) _rd1RegCompleteHandler                                1     0      1    4362
                                              9 BANK0      1     0      1
                     _I2C1_SetBuffer
       _I2C1_SetDataCompleteCallback
 ---------------------------------------------------------------------------------
 (2) _I2C1_SetDataCompleteCallback                         4     1      3    2979
                                              5 BANK0      4     1      3
                   _I2C1_SetCallback
 ---------------------------------------------------------------------------------
 (3) _I2C1_SetCallback                                     5     2      3    1117
                                              0 BANK0      5     2      3
 ---------------------------------------------------------------------------------
 (2) _I2C1_SetBuffer                                       4     2      2    1352
                                              0 BANK0      4     2      2
 ---------------------------------------------------------------------------------
 (7) _I2C1_DO_SEND_STOP                                    0     0      0       0
                    _I2C1_MasterStop
 ---------------------------------------------------------------------------------
 (8) _I2C1_MasterStop                                      0     0      0       0
 ---------------------------------------------------------------------------------
 (7) _I2C1_DO_SEND_RESTART                                 0     0      0       0
           _I2C1_MasterEnableRestart
 ---------------------------------------------------------------------------------
 (8) _I2C1_MasterEnableRestart                             0     0      0       0
 ---------------------------------------------------------------------------------
 (7) _I2C1_CallbackReturnStop                              1     0      1       0
                                              9 BANK0      1     0      1
 ---------------------------------------------------------------------------------
 (7) _I2C1_CallbackReturnReset                             1     0      1     325
                                              9 BANK0      1     0      1
 ---------------------------------------------------------------------------------
 (13) Absolute function(Fake)                              0     0      0       0
 ---------------------------------------------------------------------------------
 (4) _I2C1_MasterStart                                     0     0      0       0
 ---------------------------------------------------------------------------------
 (2) _I2C1_Close                                           2     2      0      37
                                              0 BANK0      2     2      0
                _I2C1_MasterClearIrq
                   _I2C1_MasterClose
              _I2C1_MasterDisableIrq
 ---------------------------------------------------------------------------------
 (3) _I2C1_MasterDisableIrq                                0     0      0       0
 ---------------------------------------------------------------------------------
 (3) _I2C1_MasterClose                                     0     0      0       0
 ---------------------------------------------------------------------------------
 (3) _I2C1_MasterClearIrq                                  0     0      0       0
 ---------------------------------------------------------------------------------
 (1) _EPWM2_LoadDutyValue                                  4     2      2     522
                                              0 BANK0      4     2      2
 ---------------------------------------------------------------------------------
 (1) _EPWM1_LoadDutyValue                                  4     2      2     522
                                              0 BANK0      4     2      2
 ---------------------------------------------------------------------------------
 (1) _DELAY_milliseconds                                   3     1      2     424
                                              0 BANK0      3     1      2
 ---------------------------------------------------------------------------------
 Estimated maximum stack depth 13
 ---------------------------------------------------------------------------------
 (Depth) Function   	        Calls       Base Space   Used Autos Params    Refs
 ---------------------------------------------------------------------------------
 (10) _INTERRUPT_InterruptManager                          0     0      0    1056
                            _INT_ISR
                    _PIN_MANAGER_IOC
                           _TMR4_ISR
 ---------------------------------------------------------------------------------
 (11) _TMR4_ISR                                            0     0      0       0
                      _TMR4_CallBack
 ---------------------------------------------------------------------------------
 (12) _TMR4_CallBack                                       0     0      0       0
                   Absolute function *
       _TMR4_DefaultInterruptHandler *
                     _TimerInterrupt *
 ---------------------------------------------------------------------------------
 (13) _TimerInterrupt                                      0     0      0       0
                     _TMR4_StopTimer
 ---------------------------------------------------------------------------------
 (14) _TMR4_StopTimer                                      0     0      0       0
 ---------------------------------------------------------------------------------
 (13) _TMR4_DefaultInterruptHandler                        0     0      0       0
 ---------------------------------------------------------------------------------
 (11) _PIN_MANAGER_IOC                                     0     0      0    1056
                         _IOCBF7_ISR
 ---------------------------------------------------------------------------------
 (12) _IOCBF7_ISR                                          0     0      0    1056
                   Absolute function *
                    _ButtonInterrupt *
     _IOCBF7_DefaultInterruptHandler *
 ---------------------------------------------------------------------------------
 (13) _IOCBF7_DefaultInterruptHandler                      0     0      0       0
 ---------------------------------------------------------------------------------
 (13) _ButtonInterrupt                                     0     0      0    1056
                           _patronus
 ---------------------------------------------------------------------------------
 (14) _patronus                                            3     3      0    1056
                                              4 COMMON     3     3      0
               i1_DELAY_milliseconds
              i1_EPWM1_LoadDutyValue
              i1_EPWM2_LoadDutyValue
               i1_PWM4_LoadDutyValue
 ---------------------------------------------------------------------------------
 (15) i1_PWM4_LoadDutyValue                                4     2      2     174
                                              0 COMMON     4     2      2
 ---------------------------------------------------------------------------------
 (15) i1_EPWM2_LoadDutyValue                               4     2      2     174
                                              0 COMMON     4     2      2
 ---------------------------------------------------------------------------------
 (15) i1_EPWM1_LoadDutyValue                               4     2      2     174
                                              0 COMMON     4     2      2
 ---------------------------------------------------------------------------------
 (15) i1_DELAY_milliseconds                                3     1      2     152
                                              0 COMMON     3     1      2
 ---------------------------------------------------------------------------------
 (11) _INT_ISR                                             0     0      0       0
                       _INT_CallBack
 ---------------------------------------------------------------------------------
 (12) _INT_CallBack                                        0     0      0       0
                   Absolute function *
        _INT_DefaultInterruptHandler *
                    _WakeUpInterrupt *
 ---------------------------------------------------------------------------------
 (13) _WakeUpInterrupt                                     0     0      0       0
 ---------------------------------------------------------------------------------
 (13) _INT_DefaultInterruptHandler                         0     0      0       0
 ---------------------------------------------------------------------------------
 (13) Absolute function(Fake)                              0     0      0       0
 ---------------------------------------------------------------------------------
 Estimated maximum stack depth 15
 ---------------------------------------------------------------------------------

 Call Graph Graphs:

 _main (ROOT)
   _DELAY_milliseconds
   _EPWM1_LoadDutyValue
   _EPWM2_LoadDutyValue
   _I2C1_Read1ByteRegister
     _I2C1_Close
       _I2C1_MasterClearIrq
       _I2C1_MasterClose
       _I2C1_MasterDisableIrq
     _I2C1_MasterWrite
       _I2C1_MasterOperation
         _I2C1_MasterStart
         _I2C1_Poller
           _I2C1_MasterFsm
             _I2C1_DO_ADDRESS_NACK *
               Absolute function(Fake) *
               _I2C1_CallbackReturnReset *
               _I2C1_CallbackReturnStop *
               _I2C1_DO_SEND_RESTART *
                 _I2C1_MasterEnableRestart
               _I2C1_DO_SEND_STOP *
                 _I2C1_MasterStop
               _rd1RegCompleteHandler *
                 _I2C1_SetBuffer
                 _I2C1_SetDataCompleteCallback
                   _I2C1_SetCallback
               _rd2RegCompleteHandler *
                 _I2C1_SetBuffer
                 _I2C1_SetDataCompleteCallback
               _rdBlkRegCompleteHandler *
                 _I2C1_SetBuffer
                 _I2C1_SetDataCompleteCallback
               _wr1RegCompleteHandler *
                 _I2C1_SetBuffer
                 _I2C1_SetDataCompleteCallback
               _wr2RegCompleteHandler *
                 _I2C1_SetBuffer
                 _I2C1_SetDataCompleteCallback
             _I2C1_DO_IDLE *
             _I2C1_DO_RCEN *
               _I2C1_MasterStartRx
             _I2C1_DO_RESET *
             _I2C1_DO_RX *
               Absolute function(Fake) *
               _I2C1_CallbackReturnReset *
               _I2C1_CallbackReturnStop *
               _I2C1_DO_RX_NACK_RESTART *
                 _I2C1_MasterSendNack
               _I2C1_DO_RX_NACK_STOP *
                 _I2C1_MasterSendNack
               _I2C1_MasterGetRxData *
               _I2C1_MasterSendAck *
               _rd1RegCompleteHandler *
               _rd2RegCompleteHandler *
               _rdBlkRegCompleteHandler *
               _wr1RegCompleteHandler *
               _wr2RegCompleteHandler *
             _I2C1_DO_RX_ACK *
               _I2C1_MasterSendAck
             _I2C1_DO_RX_NACK_RESTART *
             _I2C1_DO_RX_NACK_STOP *
             _I2C1_DO_SEND_ADR_READ *
               _I2C1_MasterSendTxData
             _I2C1_DO_SEND_ADR_WRITE *
               _I2C1_MasterSendTxData
             _I2C1_DO_SEND_RESTART *
             _I2C1_DO_SEND_RESTART_READ *
               _I2C1_MasterEnableRestart
             _I2C1_DO_SEND_RESTART_WRITE *
               _I2C1_MasterEnableRestart
             _I2C1_DO_SEND_STOP *
             _I2C1_DO_TX *
               Absolute function(Fake) *
               _I2C1_CallbackReturnReset *
               _I2C1_CallbackReturnStop *
               _I2C1_DO_SEND_RESTART_READ *
               _I2C1_DO_SEND_RESTART_WRITE *
               _I2C1_DO_SEND_STOP *
               _I2C1_MasterIsNack *
               _I2C1_MasterSendTxData *
               _rd1RegCompleteHandler *
               _rd2RegCompleteHandler *
               _rdBlkRegCompleteHandler *
               _wr1RegCompleteHandler *
               _wr2RegCompleteHandler *
             _I2C1_DO_TX_EMPTY *
               Absolute function(Fake) *
               _I2C1_CallbackReturnReset *
               _I2C1_CallbackReturnStop *
               _I2C1_DO_SEND_RESTART *
               _I2C1_DO_SEND_STOP *
               _I2C1_MasterSetIrq *
               _rd1RegCompleteHandler *
               _rd2RegCompleteHandler *
               _rdBlkRegCompleteHandler *
               _wr1RegCompleteHandler *
               _wr2RegCompleteHandler *
             _I2C1_MasterClearIrq *
             _I2C1_MasterIsNack *
           _I2C1_MasterWaitForEvent
     _I2C1_Open
       _I2C1_MasterClearIrq
       _I2C1_MasterOpen
     _I2C1_SetAddressNackCallback
       _I2C1_SetCallback
     _I2C1_SetBuffer
     _I2C1_SetDataCompleteCallback
   _I2C1_Write1ByteRegister
     _I2C1_Close
     _I2C1_MasterWrite
     _I2C1_Open
     _I2C1_SetAddressNackCallback
     _I2C1_SetBuffer
     _I2C1_SetDataCompleteCallback
   _INT_SetInterruptHandler
   _IOCBF7_SetInterruptHandler
   _PWM4_LoadDutyValue
   _SYSTEM_Initialize
     _EPWM1_Initialize
     _EPWM2_Initialize
     _EXT_INT_Initialize
       _INT_SetInterruptHandler
     _I2C1_Initialize
     _OSCILLATOR_Initialize
     _PIN_MANAGER_Initialize
       _IOCBF7_SetInterruptHandler
     _PWM4_Initialize
     _TMR2_Initialize
     _TMR4_Initialize
       _TMR4_SetInterruptHandler
     _WDT_Initialize
   _TMR4_SetInterruptHandler

 _INTERRUPT_InterruptManager (ROOT)
   _INT_ISR
     _INT_CallBack
       Absolute function(Fake) *
       _INT_DefaultInterruptHandler *
       _WakeUpInterrupt *
   _PIN_MANAGER_IOC
     _IOCBF7_ISR
       Absolute function(Fake) *
       _ButtonInterrupt *
         _patronus
           i1_DELAY_milliseconds
           i1_EPWM1_LoadDutyValue
           i1_EPWM2_LoadDutyValue
           i1_PWM4_LoadDutyValue
       _IOCBF7_DefaultInterruptHandler *
   _TMR4_ISR
     _TMR4_CallBack
       Absolute function(Fake) *
       _TMR4_DefaultInterruptHandler *
       _TimerInterrupt *
         _TMR4_StopTimer

 Address spaces:
Name               Size   Autos  Total    Cost      Usage
BIGRAM             3F0      0       0       0        0.0%
EEDATA             100      0       0       0        0.0%
NULL                 0      0       0       0        0.0%
CODE                 0      0       0       0        0.0%
BITCOMMON            E      0       0       1        0.0%
BITSFR0              0      0       0       1        0.0%
SFR0                 0      0       0       1        0.0%
COMMON               E      7       B       2       78.6%
BITSFR1              0      0       0       2        0.0%
SFR1                 0      0       0       2        0.0%
BITSFR2              0      0       0       3        0.0%
SFR2                 0      0       0       3        0.0%
STACK                0      0       0       3        0.0%
BITBANK0            50      0       0       4        0.0%
BITSFR3              0      0       0       4        0.0%
SFR3                 0      0       0       4        0.0%
BANK0               50     1D      3E       5       77.5%
BITSFR4              0      0       0       5        0.0%
SFR4                 0      0       0       5        0.0%
BITBANK1            50      0       0       6        0.0%
BITSFR5              0      0       0       6        0.0%
SFR5                 0      0       0       6        0.0%
BANK1               50      0       0       7        0.0%
BITSFR6              0      0       0       7        0.0%
SFR6                 0      0       0       7        0.0%
BITBANK2            50      0       0       8        0.0%
BITSFR7              0      0       0       8        0.0%
SFR7                 0      0       0       8        0.0%
BANK2               50      0       0       9        0.0%
BITSFR8              0      0       0       9        0.0%
SFR8                 0      0       0       9        0.0%
BITBANK3            50      0       0      10        0.0%
BITSFR9              0      0       0      10        0.0%
SFR9                 0      0       0      10        0.0%
BANK3               50      0       0      11        0.0%
BITSFR10             0      0       0      11        0.0%
SFR10                0      0       0      11        0.0%
BITBANK4            50      0       0      12        0.0%
BITSFR11             0      0       0      12        0.0%
SFR11                0      0       0      12        0.0%
BANK4               50      0       0      13        0.0%
BITSFR12             0      0       0      13        0.0%
SFR12                0      0       0      13        0.0%
BITBANK5            50      0       0      14        0.0%
BITSFR13             0      0       0      14        0.0%
SFR13                0      0       0      14        0.0%
BANK5               50      0       0      15        0.0%
BITSFR14             0      0       0      15        0.0%
SFR14                0      0       0      15        0.0%
BITBANK6            50      0       0      16        0.0%
BITSFR15             0      0       0      16        0.0%
SFR15                0      0       0      16        0.0%
BANK6               50      0       0      17        0.0%
BITSFR16             0      0       0      17        0.0%
SFR16                0      0       0      17        0.0%
BITBANK7            50      0       0      18        0.0%
BITSFR17             0      0       0      18        0.0%
SFR17                0      0       0      18        0.0%
BANK7               50      0       0      19        0.0%
BITSFR18             0      0       0      19        0.0%
SFR18                0      0       0      19        0.0%
BITSFR19             0      0       0      20        0.0%
SFR19                0      0       0      20        0.0%
ABS                  0      0      49      20        0.0%
BITBANK8            50      0       0      21        0.0%
BITSFR20             0      0       0      21        0.0%
SFR20                0      0       0      21        0.0%
BANK8               50      0       0      22        0.0%
BITSFR21             0      0       0      22        0.0%
SFR21                0      0       0      22        0.0%
BITBANK9            50      0       0      23        0.0%
BITSFR22             0      0       0      23        0.0%
SFR22                0      0       0      23        0.0%
BANK9               50      0       0      24        0.0%
BITSFR23             0      0       0      24        0.0%
SFR23                0      0       0      24        0.0%
BITBANK10           50      0       0      25        0.0%
BITSFR24             0      0       0      25        0.0%
SFR24                0      0       0      25        0.0%
BANK10              50      0       0      26        0.0%
BITSFR25             0      0       0      26        0.0%
SFR25                0      0       0      26        0.0%
BITBANK11           50      0       0      27        0.0%
BITSFR26             0      0       0      27        0.0%
SFR26                0      0       0      27        0.0%
BANK11              50      0       0      28        0.0%
BITSFR27             0      0       0      28        0.0%
SFR27                0      0       0      28        0.0%
BITBANK12           30      0       0      29        0.0%
BITSFR28             0      0       0      29        0.0%
SFR28                0      0       0      29        0.0%
BANK12              30      0       0      30        0.0%
BITSFR29             0      0       0      30        0.0%
SFR29                0      0       0      30        0.0%
BITSFR30             0      0       0      31        0.0%
SFR30                0      0       0      31        0.0%
DATA                 0      0      49      31        0.0%
BITSFR31             0      0       0      32        0.0%
SFR31                0      0       0      32        0.0%


Microchip Technology PIC Macro Assembler V2.32 build 20210201212658 
Symbol Table                                                                                   Sun May 30 08:36:31 2021

              __size_of_EPWM2_LoadDutyValue 001C                                          l45 034D  
                                        l63 0382                      ??i1_PWM4_LoadDutyValue 0072  
                                       l102 061B                                         l111 062E  
                                       l201 0510                                         l105 0608  
                                       l122 055E                                         l114 0546  
                                       l108 05F5                                         l221 052C  
                                       l303 049D                                         l312 0772  
                                       l218 065A                                         l306 06CC  
                                       l309 06D1                                         l325 06FE  
                                       l270 0691                                         l407 03DF  
                                       l600 0293                                         l264 0725  
                                       l418 071F                                         l531 0314  
                                       l355 06DB                                         l700 079A  
                                       l532 0315                                         l613 02B1  
                                       l614 02DA                                         l542 04BC  
                                       l358 04D8                                         l198 064C  
                                       l703 0788                                         l631 03B2  
                                       l536 04F4                                         l528 06E4  
                                       l721 078E                                         l625 070D  
                                       l730 077A                                         l706 0737  
                                       l555 063E                                         l715 078B  
                                       l724 0731                                         l652 075F  
                                       l548 073C                                         l564 0668  
                                       l709 0791                                         l661 0750  
                                       l581 06AB                                         l718 0794  
                                       l558 0676                                         l670 0741  
                                       l575 045E                                         l727 0776  
                                       l751 0785                                         l591 06ED  
                                       l655 075A                                         l664 074B  
                                       l745 0797                                         l649 0764  
                                       l585 0437                                         l594 0706  
                                       l658 0755                                         l754 0726  
                                       l667 0746                                         l748 079D  
                                       l684 07A4                                         l588 0769  
                                       l676 040C                                         l597 0277  
                                       l845 05E2                                         l758 072B  
                                       l687 07A2                                         l697 069E  
                                       l873 0719                                         _PR2 001B  
                                       _PR4 0416                                         u680 0635  
                                       u681 0634                                         u930 055E  
                                       u931 055D                                         u985 0506  
                                       u995 0522                  __end_of_DELAY_milliseconds 055F  
                     ?_I2C1_MasterOperation 0070                             _TMR2_Initialize 06F7  
                           _PWM4_Initialize 06D2                                         wreg 0009  
                    ?_I2C1_MasterSendTxData 0070           __size_of_I2C1_MasterEnableRestart 0003  
                  __end_of_EPWM2_Initialize 064D                        _I2C1_DO_RX_NACK_STOP 0747  
                 ?_I2C1_MasterEnableRestart 0070          __end_of_IOCBF7_SetInterruptHandler 0720  
                _IOCBF7_SetInterruptHandler 071A                        I2C1_SetBuffer@buffer 0044  
                   ??_rd2RegCompleteHandler 004B                                        l4100 0114  
                                      l3150 0548                                        l4110 014F  
                                      l4102 0125                                        l3152 0551  
                                      l4200 03A4                                        l3208 04BD  
                                      l4112 0158                                        l4104 012D  
                                      l4106 0136                                        l3148 0547  
                                      l3500 052D                                        l4108 0147  
                                      l3502 0545                                        l3510 0734  
                                      l3600 024B                                        l3512 0760  
                                      l3520 075E                                        l4080 005F  
                                      l3186 04F5                                        l3530 0786  
                                      l3506 072C                                        l3610 0253  
                                      l3514 0763                                        l4090 00DF  
                                      l4082 006C                                        l4074 0042  
                                      l3188 0511                                        l3460 0669  
                                      l3612 0279                                        l3604 024F  
                                      l3524 0751                                        l4092 00EC  
                                      l4084 00CB                                        l4076 005D  
                                      l3462 078F                                        l3454 043A  
                                      l3470 0612                                        l3534 0773  
                                      l3614 0285                                        l3630 02A2  
                                      l3518 075B                                        l3550 0756  
                                      l3526 0754                                        l3542 0747  
                                      l3710 03EB                                        l3702 03E0  
                                      l4094 00F8                                        l4086 00D1  
                                      l4078 005E                                        l3464 078C  
                                      l2584 0631                                        l3456 0440  
                                      l3472 061A                                        l3480 0607  
                                      l3616 0290                                        l3640 02B3  
                                      l3632 02AC                                        l3552 0759  
                                      l3544 074A                                        l3536 0742  
                                      l3704 03E2                                        l3800 02F8  
                                      l4096 0104                                        l4088 00D8  
                                      l2586 0635                                        l3458 0451  
                                      l3562 07A1                                        l3466 0777  
                                      l3570 0767                                        l3618 0292  
                                      l3650 02BB                                        l3634 02AF  
                                      l3626 0294                                        l3538 0745  
                                      l4194 0404                                        l3706 03E7  
                                      l3730 041D                                        l3810 030C  
                                      l3802 02FD                                        l4098 010B  
                                      l2588 063D                                        l3492 061C  
                                      l3468 0609                                        l3476 05F6  
                                      l3484 05E3                                        l3548 0789  
                                      l3556 0783                                        l3572 0768  
                                      l3580 06EC                                        l4196 02CC  
                                      l3644 02B7                                        l3628 029E  
                                      l3660 070C                                        l3716 03EF  
                                      l3732 0422                                        l3724 040D  
                                      l3740 06A3                                        l3820 0738  
                                      l3812 030F                                        l3804 0301  
                                      l3900 03DE                                        l3566 079B  
                                      l3830 04E5                                        l3734 0792  
                                      l3494 0625                                        l3478 05FF  
                                      l3486 05EC                                        l3558 07A3  
                                      l3670 038A                                        l4198 0269  
                                      l3726 0410                                        l3742 06A6  
                                      l3750 0697                                        l3814 0312  
                                      l3806 0306                                        l3902 06C6  
                                      l3910 05CF                                        l3760 0795  
                                      l3832 04E8                                        l3824 04D9  
                                      l3496 062D                                        l3488 05F4  
                                      l3672 038D                                        l3664 0383  
                                      l3568 0765                                        l3576 06E5  
                                      l3584 06FF                                        l3592 023E  
                                      l3656 0707                                        l3728 0415  
                                      l3736 069F                                        l3752 0698  
                                      l3808 0307                                        l3744 0720  
                                      l3904 06C9                                        l3920 05DF  
                                      l3912 05D2                                        l3762 0798  
                                      l3834 04EB                                        l3826 04E0  
                                      l3666 0386                                        l3682 0393  
                                      l3578 06E7                                        l3586 0701  
                                      l3658 0709                                        l3690 074F  
                                      l3738 06A0                                        l3770 04A8  
                                      l3754 069A                                        l3818 065B  
                                      l3850 0647                                        l3842 063F  
                                      l3906 06CA                                        l3746 071A  
                                      l3922 06D2                                        l3930 06FA  
                                      l3914 05D3                                        l3836 04EE  
                                      l3828 04E1                                        l3676 038F  
                                      l3588 0705                                        l3596 0247  
                                      l3772 04AD                                        l3780 04BA  
                                      l3764 04A0                                        l3756 069D  
                                      l3748 0692                                        l3940 0323  
                                      l3860 0653                                        l3852 064A  
                                      l3844 0642                                        l3924 06D7  
                                      l3932 06FB                                        l3916 05D5  
                                      l3908 076F                                        l3838 04F3  
                                      l3694 073D                                        l3774 04B0  
                                      l3766 04A6                                        l3790 02E7  
                                      l3950 034B                                        l3942 032F  
                                      l3862 0655                                        l3854 064D  
                                      l3846 0643                                        l3870 0690  
                                      l3926 06D8                                        l3934 06FC  
                                      l3918 05D7                                        l3688 074C  
                                      l3696 073F                                        l3776 04B4  
                                      l3768 04A7                                        l3792 02E8  
                                      l3944 0338                                        l3936 0318  
                                      l3960 0366                                        l3864 0658  
                                      l3856 0650                                        l3848 0645  
                                      l3872 06DC                                        l3880 03B3  
                                      l3928 06F7                                        l3784 0714  
                                      l3698 0740                                        l3778 04B7  
                                      l3794 02E9                                        l3786 02DD  
                                      l3946 0340                                        l3938 0319  
                                      l3962 036F                                        l3954 0350  
                                      l3858 0651                                        l3866 0685  
                                      l3874 06DE                                        l3890 03CE  
                                      l3882 03B5                                        l3796 02F2  
                                      l3788 02E3                                        l3948 0343  
                                      l3964 0377                                        l3956 0350  
                                      l3868 0688                                        l3876 06E0  
                                      l3892 03D2                                        l3884 03B7  
                                      l3798 02F7                                        l3966 037A  
                                      l3958 035A                                        l3878 06E3  
                                      l3894 03D4                                        l3886 03CB  
                                      l3896 03D5                                        l3888 03CC  
                                      l3968 047F                                        l3898 03D6  
                                      u1025 04CE                                        u1300 041D  
                                      u1301 041C                                        u1310 06AB  
                                      u1311 06AA                                        u1240 0440  
                                      u1320 0697                                        u1400 035A  
                                      u1241 043F                                        u1321 0696  
                                      u1401 0359                                        u1250 0246  
                                      u1330 04A6                                        u1410 0382  
                                      u1251 0245                                        u1331 04A5  
                                      u1411 0381                                        u1260 0290  
                                      u1340 04AD                                        u1261 028F  
                                      u1341 04AC                                        _LATA 010C  
                                      u1270 02AC                                        u1350 02E3  
                                      _LATB 010D                             __end_of_INT_ISR 076F  
                                      u1271 02AB                                        u1351 02E2  
                                      _LATC 010E                                        u1360 04E0  
                                      u1280 072B                                        u1361 04DF  
                                      u1281 072A                                        u1290 0415  
                                      u1370 06D1                                        u1530 010B  
                                      u1291 0414                                        u1371 06D0  
                                      u1531 010A                                        u1380 0323  
                                      u1540 012D                                        u1381 0322  
                                      u1541 012C                                        u1390 034B  
                                      u1550 014F                                        u1391 034A  
                                      u1551 014E                                        u1567 054C  
                                      _PLLR 04D6                                        _TMR2 001A  
                                      _TMR4 0415                                        _WPUA 020C  
                                      _WPUB 020D                                        _WPUC 020E  
                   ??_wr2RegCompleteHandler 004B                            ??_I2C1_MasterFsm 004E  
          __size_of_I2C1_DO_RX_NACK_RESTART 0005                        i1_DELAY_milliseconds 05A4  
                 ??_I2C1_CallbackReturnStop 004B                                        _main 0042  
                                      fsr0h 0005                                        fsr1h 0007  
                                      indf0 0000                                        fsr0l 0004  
                                      indf1 0001                                        fsr1l 0006  
                                      btemp 007E         __end_of_INT_DefaultInterruptHandler 07A8  
               _INT_DefaultInterruptHandler 07A7                                        start 0032  
                          ??_I2C1_SetBuffer 0043             __end_of_INT_SetInterruptHandler 0726  
                     ??_EPWM1_LoadDutyValue 0043                  ??_TMR4_SetInterruptHandler 0043  
          __size_of_rdBlkRegCompleteHandler 001A               I2C1_CallbackReturnStop@funPtr 004A  
            __size_of_OSCILLATOR_Initialize 000C               __end_of_OSCILLATOR_Initialize 06D2  
                       __size_of_IOCBF7_ISR 000E                           __end_of_I2C1_Open 0316  
                   ??i1_EPWM2_LoadDutyValue 0072                                       ?_main 0070  
            __size_ofi1_EPWM1_LoadDutyValue 0017                                       _T2CON 001C  
                                     _T4CON 0417               __end_ofi1_EPWM1_LoadDutyValue 05A4  
                                     i1l201 058C                                       i1l122 05B9  
                                     i1l221 05A3                                       i1l240 001E  
                                     i1l241 0030                                       i1l411 06F6  
                                     i1l261 06C5                                       i1l421 07A6  
                                     i1l246 0030                                       i1l238 0012  
                                     i1l415 0684                                       i1l257 076E  
                                     i1l267 07A7                                       i1l358 0575  
                                     i1l822 077E                                       i1l816 07A8  
                                     i1l819 0782                                       i1l851 07A0  
                                     i1l870 06B8                                       i1l866 05CE  
                                     i1l876 07A5                                       i1l799 023D  
                __end_of_i2c1_fsmStateTable 047F                          _PWM4_LoadDutyValue 04BD  
                                     u80_20 019A                                       u80_21 0199  
                                     u81_20 01C0                                       u81_21 01BF  
                                     _TRISA 008C                                       _TRISB 008D  
                                     _TRISC 008E                                       u82_20 01F3  
                                     u82_21 01F2                      ??_I2C1_MasterGetRxData 0041  
                                     u75_20 05B9                                       u83_20 022B  
                                     u91_20 067D                                       u75_21 05B8  
                                     u83_21 022A                                       u91_21 067C  
                                     u92_20 06B3                                       u92_21 06B2  
                                     u76_25 0585                                       u77_25 059C  
                                     u78_25 056E                                       u89_20 06C0  
                                     u89_21 06BF                       ?_I2C1_DO_RX_NACK_STOP 0070  
                           _TMR4_Initialize 05CF                  ??_I2C1_CallbackReturnReset 004B  
                         ??_I2C1_MasterOpen 0041                           ??_I2C1_MasterStop 0041  
                         ??_I2C1_Initialize 0041                            __end_of_TMR4_ISR 05CF  
                   __end_of_PIN_MANAGER_IOC 06F7                     __end_of_WakeUpInterrupt 07A9  
                            _WDT_Initialize 076F                         ?_PWM4_LoadDutyValue 0041  
                     ?i1_DELAY_milliseconds 0070                                       pclath 000A  
                                     status 0003                 __size_of_I2C1_MasterSendAck 0004  
                                     wtemp0 007E                                ??_I2C1_DO_RX 004B  
                              ??_I2C1_DO_TX 004B                      ??_I2C1_DO_ADDRESS_NACK 004B  
                              ??_I2C1_Close 0041                 __size_of_I2C1_MasterStartRx 0003  
                           __initialization 0034                                __end_of_main 016C  
                      ??_PWM4_LoadDutyValue 0043                     __end_of_PWM4_Initialize 06DC  
                   __end_of_TMR2_Initialize 06FF                 ?_INTERRUPT_InterruptManager 0070  
                    ??_I2C1_MasterOperation 0051                                      ??_main 0058  
                  __size_of_ButtonInterrupt 0004                     __size_of_TimerInterrupt 0004  
             __size_of_I2C1_DO_SEND_RESTART 0005                          __end_of_I2C1_DO_RX 02DB  
                        __end_of_I2C1_DO_TX 0294                      __end_of_WDT_Initialize 0773  
                                 ??_INT_ISR 0070                          __end_of_I2C1_Close 04F5  
                   ?_I2C1_Read1ByteRegister 0054                                      _CCP2AS 029C  
                                    _EEADRH 0192                                      _EEADRL 0191  
                                    _CCPR1H 0292                                      _CCPR2H 0299  
                                    _EEDATH 0194                                      _CCPR1L 0291  
                                    _CCPR4H 0319                                      _CCPR2L 0298  
                                    _EEDATL 0193                                      _CCPR4L 0318  
                                    _EECON2 0196                                      _ANSELA 018C  
                                    _ANSELB 018D                                      _ANSELC 018E  
                                    _BORCON 0116                                      u100_20 06F3  
                                    u100_21 06F2                                      u101_20 05C9  
                                    u101_21 05C8                                      i1l3200 05BC  
                                    i1l3202 05C9                                      i1l3140 067D  
                                    i1l3204 05CC                                      i1l3142 0682  
                                    i1l3064 06B9                                      i1l3144 06AC  
                                    u113_20 000A                                      u113_21 0009  
                                    i1l3066 06C0                                      i1l3138 0677  
                                    i1l3146 06B3                                      i1l3190 076A  
                                    i1l3192 076B                                      u114_20 000E  
                                    u114_21 000D                                      i1l3194 06EE  
                                    i1l3290 001A                                      i1l3282 0006  
                                    i1l3196 06F3                                      i1l3292 0022  
                                    i1l3284 000A                                      i1l2910 01C0  
                                    i1l3198 05BA                                      i1l3294 0027  
                                    i1l3286 000E                                      i1l2920 01F3  
                                    i1l2904 019B                                      i1l3296 002C  
                                    i1l3288 0016                                      u115_20 0016  
                                    u115_21 0015                                      i1l2930 0223  
                                    i1l2922 01FA                                      i1l2914 01C4  
                                    i1l2906 01B6                                      i1l2932 0225  
                                    i1l2916 01E9                                      i1l2908 01BA  
                                    i1l2862 05A4                                      i1l2870 058D  
                                    i1l2934 022B                                      i1l2918 01ED  
                                    i1l2864 05A5                                      i1l2872 055F  
                                    i1l2928 01FE                                      i1l2936 079E  
                                    u116_20 001A                                      u116_21 0019  
                                    i1l2866 05AD                                      i1l2868 0576  
                                    i1l2892 017F                                      i1l2884 016C  
                                    i1l2980 077F                                      i1l2894 0190  
                                    i1l2886 017E                                      i1l2982 077B  
                                    i1l2896 0194                                      u117_20 0022  
                                    u117_21 0021                                      i1l2898 019A  
      __size_of_I2C1_SetAddressNackCallback 000E                                      u118_20 0027  
                                    u118_21 0026                                      u119_20 002C  
                                    u119_21 002B                                      u157_27 05A8  
                                    _OSCCON 0099                                      _WDTCON 0097  
                         ?_I2C1_MasterClose 0070                     ??_I2C1_MasterDisableIrq 0041  
                         ?_I2C1_MasterStart 0070                           ?_I2C1_MasterWrite 0070  
                  ?_I2C1_MasterWaitForEvent 0070                          ??_I2C1_MasterClose 0041  
                          _I2C1_DO_TX_EMPTY 0383                          ??_I2C1_MasterStart 0041  
                        ??_I2C1_MasterWrite 0054                    ?_I2C1_Write1ByteRegister 0054  
              __size_of_I2C1_MasterClearIrq 0003                     __end_of_TMR4_Initialize 05E3  
                             ?_INT_CallBack 0070                    ??_I2C1_DO_SEND_ADR_WRITE 0042  
                         ?_I2C1_SetCallback 0041                            __end_of_patronus 023E  
                    ??_I2C1_DO_RX_NACK_STOP 0041        __end_of_TMR4_DefaultInterruptHandler 07A6  
     __size_of_TMR4_DefaultInterruptHandler 0001                _TMR4_DefaultInterruptHandler 07A5  
                     _I2C1_DO_SEND_ADR_READ 06E5               ?_I2C1_SetDataCompleteCallback 0046  
                        ??_I2C1_SetCallback 0044              __end_of_I2C1_Read1ByteRegister 034E  
                           ?_WDT_Initialize 0070            __size_of_INT_SetInterruptHandler 0006  
                       _EPWM2_LoadDutyValue 04F5    TMR4_SetInterruptHandler@InterruptHandler 0041  
IOCBF7_SetInterruptHandler@InterruptHandler 0041     INT_SetInterruptHandler@InterruptHandler 0041  
                          ?_PIN_MANAGER_IOC 0070                            ?_WakeUpInterrupt 0070  
              __size_of_I2C1_MasterSendNack 0004                      ??i1_DELAY_milliseconds 0072  
                   _I2C1_DO_RX_NACK_RESTART 0742                                ??_IOCBF7_ISR 0077  
                         _SYSTEM_Initialize 047F              I2C1_SetDataCompleteCallback@cb 0046  
                   __end_of__initialization 003E             I2C1_MasterOperation@returnValue 0053  
                        ?_SYSTEM_Initialize 0070                               ??_I2C1_Poller 0051  
                   _rdBlkRegCompleteHandler 052D                           ?_EPWM1_Initialize 0070  
                            __pcstackCOMMON 0070                        ?_EPWM2_LoadDutyValue 0041  
                     __end_of_TMR4_CallBack 06B9                         ??_SYSTEM_Initialize 0043  
          __end_of_I2C1_MasterEnableRestart 0792                                   ?_TMR4_ISR 0070  
                        ??_EPWM1_Initialize 0041                            ?_TMR2_Initialize 0070  
                          ?_PWM4_Initialize 0070                              ??_INT_CallBack 0070  
              ??_I2C1_DO_SEND_RESTART_WRITE 0041                     ??_I2C1_MasterSendTxData 0041  
               PWM4_LoadDutyValue@dutyValue 0041                          __end_of_IOCBF7_ISR 0685  
               __size_of_EXT_INT_Initialize 000D                              _OPTION_REGbits 0095  
             ?_TMR4_DefaultInterruptHandler 0070                       __end_of_I2C1_DO_RESET 0742  
                         ?_EPWM2_Initialize 0070                 ?_IOCBF7_SetInterruptHandler 0041  
                         ??_ButtonInterrupt 0077                   __end_of_SYSTEM_Initialize 049E  
                        ??_EPWM2_Initialize 0041                                  __pbssBANK0 0020  
           __end_of_I2C1_MasterWaitForEvent 072C              __size_of_rd2RegCompleteHandler 0013  
             __end_of_rd2RegCompleteHandler 0609                          _DELAY_milliseconds 0547  
                      I2C1_Open@returnValue 0043                                  __pnvCOMMON 0077  
            __size_of_wr2RegCompleteHandler 0013               __end_of_wr2RegCompleteHandler 062F  
           __end_of_I2C1_Write1ByteRegister 0383                       _TMR4_InterruptHandler 003D  
                     _rd1RegCompleteHandler 0609                     _IOCBF7_InterruptHandler 0077  
                         _I2C1_DO_SEND_STOP 0751                       _wr1RegCompleteHandler 05E3  
       __size_of_I2C1_DO_SEND_RESTART_WRITE 0005                         ?_DELAY_milliseconds 0041  
                                __pmaintext 0042                       ??_EPWM2_LoadDutyValue 0043  
                  rd1RegCompleteHandler@ptr 004A                          ?_I2C1_DO_SEND_STOP 0070  
                                ??_TMR4_ISR 0070                             _I2C1_MasterOpen 0692  
                                __pintentry 0004                             _I2C1_MasterStop 078C  
                           _I2C1_Initialize 06DC                                     _CCP1CON 0293  
                                   _CCP2CON 029A                         __end_of_I2C1_Poller 06AC  
                                   _CCP4CON 031A                                     _ECCP1AS 0295  
                          ?_TMR4_Initialize 0070                     __size_of_I2C1_DO_RX_ACK 0005  
                                   _APFCON0 011D                                     _APFCON1 011E  
                    ?_I2C1_DO_SEND_ADR_READ 0070                         ??_I2C1_DO_SEND_STOP 0041  
            i1EPWM1_LoadDutyValue@dutyValue 0070             __size_of_I2C1_DO_SEND_ADR_WRITE 0008  
             __size_ofi1_PWM4_LoadDutyValue 0017                              _TimerInterrupt 077B  
            __size_ofi1_EPWM2_LoadDutyValue 0017               __end_ofi1_EPWM2_LoadDutyValue 058D  
                         _I2C1_MasterIsNack 072C                                     _INT_ISR 076A  
                      ??_DELAY_milliseconds 0043                                   _I2C1_Open 02DB  
                 ??_I2C1_DO_RX_NACK_RESTART 0041                                     _OSCTUNE 0098  
                                   _PWM1CON 0294                                     _PWM2CON 029B  
                         _I2C1_MasterSetIrq 0783          __size_of_I2C1_DO_SEND_RESTART_READ 0005  
                                   _SSP1ADD 0212                                     _SSP1BUF 0211  
                        ?_I2C1_MasterIsNack 0070                  ?_I2C1_DO_SEND_RESTART_READ 0070  
          ??_IOCBF7_DefaultInterruptHandler 0070             ?_IOCBF7_DefaultInterruptHandler 0070  
            ??_I2C1_SetDataCompleteCallback 0049                          ?_I2C1_MasterSetIrq 0070  
               __end_of_EPWM1_LoadDutyValue 052D                          _i2c1_fsmStateTable 045F  
                       ??_I2C1_MasterIsNack 0041                   __end_of_I2C1_DO_SEND_STOP 0756  
                 ??_rdBlkRegCompleteHandler 004B                          I2C1_SetCallback@cb 0041  
                       ??_I2C1_MasterSetIrq 0041                                   ?_patronus 0070  
                   __size_of_TMR4_StopTimer 0003                               ?_I2C1_DO_IDLE 0070  
                    __end_of_TimerInterrupt 077F                               ?_I2C1_DO_RCEN 0070  
                                   __ptext1 047F                                     __ptext2 076F  
                                   __ptext3 05CF                                     __ptext4 0714  
                                   __ptext5 06F7                                     __ptext6 06D2  
                                   __ptext7 03B3                                     __ptext8 071A  
                                   __ptext9 06C6                    _I2C1_MasterEnableRestart 078F  
                 __end_of_I2C1_MasterIsNack 0732                ?_I2C1_SetAddressNackCallback 0046  
                     _OSCILLATOR_Initialize 06C6                                   _T2CONbits 001C  
                 __end_of_I2C1_MasterSetIrq 0786                    __end_of_I2C1_DO_TX_EMPTY 03B3  
                                 _T4CONbits 0417                    ??_PIN_MANAGER_Initialize 0043  
         __size_of_TMR4_SetInterruptHandler 0006                    wr1RegCompleteHandler@ptr 004A  
                                 _IOCBFbits 0396                                  ?_I2C1_Open 0070  
                     i1_EPWM1_LoadDutyValue 058D                     _INT_SetInterruptHandler 0720  
                 ?_TMR4_SetInterruptHandler 0041                                   _IOCBNbits 0395  
                                 _IOCBPbits 0394               __size_of_I2C1_MasterGetRxData 0003  
                  ?_I2C1_CallbackReturnStop 004A                  __size_of_SYSTEM_Initialize 001F  
                                   clrloop0 070F            i1DELAY_milliseconds@milliseconds 0070  
         __end_of_I2C1_DO_SEND_RESTART_READ 0765                        end_of_initialization 003E  
                __end_of_I2C1_MasterSendAck 0777                         _I2C1_MasterClearIrq 079B  
            ??_TMR4_DefaultInterruptHandler 0070                  __end_of_I2C1_MasterStartRx 078C  
                    ?_rd1RegCompleteHandler 004A                        __end_of_INT_CallBack 06C6  
                    _I2C1_DO_SEND_ADR_WRITE 06FF                __end_of_I2C1_DO_SEND_RESTART 075B  
                   __end_of_I2C1_MasterOpen 069F                      ?_wr1RegCompleteHandler 004A  
                   __end_of_I2C1_MasterStop 078F                     __end_of_I2C1_Initialize 06E5  
                                ??_patronus 0074           __size_of_I2C1_CallbackReturnReset 0002  
                               _I2C1_Poller 069F              __size_of_I2C1_MasterDisableIrq 0003  
                 ?_I2C1_CallbackReturnReset 004A               __end_of_I2C1_MasterDisableIrq 0798  
                               _I2C1_Status 0020               __size_of_I2C1_DO_ADDRESS_NACK 002D  
                   __size_of_I2C1_MasterFsm 002B                         _I2C1_MasterSendNack 0777  
       __end_of_I2C1_SetAddressNackCallback 0669                 _I2C1_SetAddressNackCallback 065B  
               __size_of_PWM4_LoadDutyValue 001C                        ?_I2C1_MasterClearIrq 0070  
                            ??_I2C1_DO_IDLE 0041                              ??_I2C1_DO_RCEN 0041  
        __end_of_I2C1_DO_SEND_RESTART_WRITE 0760                  _I2C1_DO_SEND_RESTART_WRITE 075B  
                 __size_of_I2C1_MasterClose 0003                             ?_TimerInterrupt 0070  
                          ??_WDT_Initialize 0041                     __size_of_I2C1_SetBuffer 0010  
           __end_of_rdBlkRegCompleteHandler 0547            __size_of_I2C1_MasterWaitForEvent 0006  
                 __size_of_I2C1_MasterStart 0003                   __size_of_I2C1_MasterWrite 0005  
             __size_of_I2C1_MasterOperation 001F               ??_I2C1_SetAddressNackCallback 0049  
                 I2C1_Read1ByteRegister@reg 0054            __size_of_I2C1_Write1ByteRegister 0035  
           I2C1_SetDataCompleteCallback@ptr 0048                 I2C1_Write1ByteRegister@data 0055  
            I2C1_CallbackReturnReset@funPtr 004A                        ?_I2C1_MasterSendNack 0070  
                                main@data_x 005B                                  main@data_y 005C  
                                main@data_z 005D                   __size_of_I2C1_SetCallback 0027  
                rdBlkRegCompleteHandler@ptr 004A                  __size_of_I2C1_DO_SEND_STOP 0005  
                     ??_I2C1_MasterClearIrq 0041                              _I2C1_DO_RX_ACK 074C  
                           _ButtonInterrupt 077F                           __size_of_TMR4_ISR 0015  
                    ?_OSCILLATOR_Initialize 0070                  __size_of_I2C1_MasterIsNack 0006  
                 ??_INT_SetInterruptHandler 0043             __end_of_I2C1_CallbackReturnStop 07A5  
            __size_of_I2C1_MasterSendTxData 0006                      ?i1_EPWM1_LoadDutyValue 0070  
             __end_of_I2C1_MasterSendTxData 0738                  __size_of_I2C1_MasterSetIrq 0003  
                       start_initialization 0034                   __size_of_EPWM1_Initialize 000E  
                               ??_I2C1_Open 0041               __size_of_I2C1_DO_RX_NACK_STOP 0005  
           __size_of_PIN_MANAGER_Initialize 002D                       ??_I2C1_MasterSendNack 0041  
              EPWM1_LoadDutyValue@dutyValue 0041               __size_ofi1_DELAY_milliseconds 0016  
                  I2C1_SetBuffer@bufferSize 0041                    __size_of_PIN_MANAGER_IOC 0009  
                  __size_of_WakeUpInterrupt 0001                ?_INT_DefaultInterruptHandler 0070  
                          ?_I2C1_MasterOpen 0070                            ?_I2C1_MasterStop 0070  
            I2C1_Write1ByteRegister@address 0057                            ?_I2C1_Initialize 0070  
                 __size_of_EPWM2_Initialize 000E                              _TMR4_StopTimer 079E  
                    __end_of_I2C1_DO_RX_ACK 0751                                 _CCPTMRSbits 029E  
                   ??_I2C1_DO_SEND_ADR_READ 0041                  __end_of_EXT_INT_Initialize 0692  
                          I2C1_Open@address 0042                       TMR4_ISR@CountCallBack 0079  
                               __pbssCOMMON 0079                        _I2C1_DO_SEND_RESTART 0756  
                                 ___latbits 0002                                    ?_INT_ISR 0070  
                             __pcstackBANK0 0041                    __size_of_PWM4_Initialize 000A  
                  __size_of_TMR2_Initialize 0008                       __size_of_INT_CallBack 000D  
               ??_I2C1_DO_SEND_RESTART_READ 0041                      __size_of_TMR4_CallBack 000D  
                      __end_of_I2C1_DO_IDLE 076A                        __end_of_I2C1_DO_RCEN 070E  
               __end_of_EPWM2_LoadDutyValue 0511                __end_ofi1_PWM4_LoadDutyValue 0576  
             I2C1_SetAddressNackCallback@cb 0046                       _rd2RegCompleteHandler 05F6  
                    __end_of_TMR4_StopTimer 07A1                      _PIN_MANAGER_Initialize 03B3  
                     _wr2RegCompleteHandler 061C                     __end_of_ButtonInterrupt 0783  
                ??_I2C1_MasterEnableRestart 0041               ??_INT_DefaultInterruptHandler 0070  
    __end_of_IOCBF7_DefaultInterruptHandler 07A7     __size_of_IOCBF7_DefaultInterruptHandler 0001  
            _IOCBF7_DefaultInterruptHandler 07A6                    rd2RegCompleteHandler@ptr 004A  
                            _I2C1_MasterFsm 040D                           __size_of_patronus 00D2  
                    __size_of_I2C1_DO_RESET 0005            __end_of_TMR4_SetInterruptHandler 071A  
                           ?_I2C1_DO_RX_ACK 0070               i1PWM4_LoadDutyValue@dutyValue 0070  
                   _I2C1_MasterWaitForEvent 0726                            _I2C1_MasterClose 0798  
                  ??_I2C1_Read1ByteRegister 0055                              _I2C1_SetBuffer 062F  
              ??_INTERRUPT_InterruptManager 0077                            _I2C1_MasterStart 0792  
                          _I2C1_MasterWrite 0738                                _INT_CallBack 06B9  
                   _I2C1_Write1ByteRegister 034E                       ?_I2C1_DO_SEND_RESTART 0070  
            i1EPWM2_LoadDutyValue@dutyValue 0070                           ?_I2C1_DO_TX_EMPTY 0070  
               __size_of_DELAY_milliseconds 0018                    __size_of_TMR4_Initialize 0014  
                     i1_EPWM2_LoadDutyValue 0576            __end_of_I2C1_CallbackReturnReset 07A3  
                        ??_I2C1_DO_TX_EMPTY 004B                     ??_rd1RegCompleteHandler 004B  
                   ?_I2C1_DO_SEND_ADR_WRITE 0070                   I2C1_MasterSendTxData@data 0041  
                   ??_wr1RegCompleteHandler 004B                            _I2C1_SetCallback 0438  
                                _I2C1_DO_RX 0294                                  _I2C1_DO_TX 023E  
                                 clear_ram0 070E                                    _PIE1bits 0091  
                                  _PIE3bits 0093                                  _I2C1_Close 04D9  
                              ?_I2C1_Poller 0070                             ?_TMR4_StopTimer 0070  
                    __end_of_I2C1_MasterFsm 0438         __size_of_INTERRUPT_InterruptManager 002E  
              __end_of_I2C1_MasterGetRxData 0789                                    _PIR1bits 0011  
          __size_of_I2C1_CallbackReturnStop 0002                                    _PIR2bits 0012  
                                  _PIR3bits 0013                __size_of_EPWM1_LoadDutyValue 001C  
                          ??_TimerInterrupt 0070                          _I2C1_MasterSendAck 0773  
            DELAY_milliseconds@milliseconds 0041                   _I2C1_DO_SEND_RESTART_READ 0760  
                                  _SSP1CON1 0215                                    _SSP1CON2 0216  
                                  _TMR4_ISR 05BA                               _TMR4_CallBack 06AC  
                                  _PSTR1CON 0296                                    _PSTR2CON 029D  
                    __end_of_I2C1_SetBuffer 063F                                    _SSP1STAT 0214  
                         ??_PIN_MANAGER_IOC 0077                           ??_WakeUpInterrupt 0070  
      __end_of_I2C1_SetDataCompleteCallback 0677       __size_of_I2C1_SetDataCompleteCallback 000E  
              _I2C1_SetDataCompleteCallback 0669                          _I2C1_MasterStartRx 0789  
               ?_I2C1_DO_SEND_RESTART_WRITE 0070                  I2C1_Write1ByteRegister@reg 0054  
                       ?_I2C1_MasterSendAck 0070                    ?_I2C1_DO_RX_NACK_RESTART 0070  
      __size_of_INT_DefaultInterruptHandler 0001                         ?_I2C1_MasterStartRx 0070  
              __end_of_I2C1_DO_ADDRESS_NACK 040D                            _EPWM1_Initialize 064D  
                  wr2RegCompleteHandler@ptr 004A                            __size_of_INT_ISR 0005  
            __end_of_I2C1_DO_SEND_ADR_WRITE 0707                               _I2C1_DO_RESET 073D  
                     I2C1_Close@returnValue 0042                    ?_rdBlkRegCompleteHandler 004A  
                       I2C1_SetCallback@idx 0045                         I2C1_SetCallback@ptr 0043  
                      ??_I2C1_MasterSendAck 0041                           ??_TMR2_Initialize 0041  
                         ??_PWM4_Initialize 0041                      ?_rd2RegCompleteHandler 004A  
              __end_of_I2C1_MasterOperation 04BD                                  _EECON1bits 0195  
                    ?_wr2RegCompleteHandler 004A                        ??_I2C1_MasterStartRx 0041  
                           ?_I2C1_MasterFsm 0070                            _EPWM2_Initialize 063F  
                __end_of_PWM4_LoadDutyValue 04D9                            ?_ButtonInterrupt 0070  
                            ?_TMR4_CallBack 0070                   ??_I2C1_MasterWaitForEvent 0041  
                     _I2C1_MasterDisableIrq 0795                     ??_OSCILLATOR_Initialize 0041  
                           ?_I2C1_SetBuffer 0041                     ??i1_EPWM1_LoadDutyValue 0072  
                 ??_I2C1_Write1ByteRegister 0056             __size_of_I2C1_Read1ByteRegister 0038  
                  _TMR4_SetInterruptHandler 0714           I2C1_Read1ByteRegister@returnValue 0057  
                    ??_I2C1_DO_SEND_RESTART 0041                        i1_PWM4_LoadDutyValue 055F  
                    ?i1_EPWM2_LoadDutyValue 0070                              ?_I2C1_DO_RESET 0070  
                     __size_of_I2C1_DO_IDLE 0005                       __size_of_I2C1_DO_RCEN 0007  
                                  __ptext10 06DC                                    __ptext11 0685  
                                  __ptext20 0692                                    __ptext12 0720  
                                  __ptext21 0738                                    __ptext13 063F  
                                  __ptext30 074C                                    __ptext22 049E  
                                  __ptext14 064D                                    __ptext31 0751  
                                  __ptext23 069F                                    __ptext15 04BD  
                                  __ptext40 0765                                    __ptext32 0756  
                                  __ptext24 0726                                    __ptext16 034E  
                                  __ptext41 0383                                    __ptext33 075B  
                                  __ptext25 040D                                    __ptext17 0316  
                                  __ptext50 07A3                                    __ptext42 0783  
                                  __ptext34 0760                                    __ptext26 03E0  
                                  __ptext18 065B                                    __ptext51 052D  
                                  __ptext43 072C                                    __ptext35 0707  
                                  __ptext27 073D                                    __ptext19 02DB  
                                  __ptext60 078F                                    __ptext52 05E3  
                                  __ptext44 0732                                    __ptext36 0294  
                                  __ptext28 0742                                    __ptext61 0792  
                                  __ptext53 05F6                                    __ptext45 0773  
                                  __ptext37 023E                                    __ptext29 0747  
                                  __ptext70 05BA                                    __ptext62 04D9  
                                  __ptext54 0609                                    __ptext46 0786  
                                  __ptext38 06FF                                    __ptext71 06AC  
                                  __ptext63 0795                                    __ptext55 061C  
                                  __ptext47 0777                                    __ptext39 06E5  
                                  __ptext80 055F                                    __ptext72 07A5  
                                  __ptext64 0798                                    __ptext56 0669  
                                  __ptext48 0789                                    __ptext81 0576  
                                  __ptext73 077B                                    __ptext65 079B  
                                  __ptext57 0438                                    __ptext49 07A1  
                                  __ptext82 058D                                    __ptext74 079E  
                                  __ptext66 04F5                                    __ptext58 062F  
                                  __ptext83 05A4                                    __ptext75 06EE  
                                  __ptext67 0511                                    __ptext59 078C  
                                  __ptext84 076A                                    __ptext76 0677  
                                  __ptext68 0547                                    __ptext85 06B9  
                                  __ptext77 077F                                    __ptext86 07A7  
                                  __ptext78 07A6                                    __ptext87 07A8  
                                  __ptext79 016C                                _SSP1CON1bits 0215  
                              _SSP1CON2bits 0216                                   patronus@i 0076  
              ??_IOCBF7_SetInterruptHandler 0043                                  _IOCBF7_ISR 0677  
                  _I2C1_CallbackReturnReset 07A1                           ??_TMR4_Initialize 0043  
                             __size_of_main 012A                                 ?_I2C1_DO_RX 0070  
                               ?_I2C1_DO_TX 0070                 __end_of_I2C1_MasterClearIrq 079E  
              __end_of_I2C1_DO_RX_NACK_STOP 074C                                 ?_I2C1_Close 0070  
                                  _patronus 016C                                    int$flags 007E  
           __end_of_I2C1_DO_RX_NACK_RESTART 0747                    I2C1_MasterOperation@read 0052  
              __end_ofi1_DELAY_milliseconds 05BA          __end_of_INTERRUPT_InterruptManager 0032  
                _INTERRUPT_InterruptManager 0004                                    main@data 005A  
                              _SSP1STATbits 0214              __size_of_I2C1_DO_SEND_ADR_READ 0009  
             __end_of_I2C1_DO_SEND_ADR_READ 06EE                                _I2C1_DO_IDLE 0765  
                              _I2C1_DO_RCEN 0707         __size_of_IOCBF7_SetInterruptHandler 0006  
                     ?i1_PWM4_LoadDutyValue 0070                 __end_of_I2C1_MasterSendNack 077B  
                                _INTCONbits 000B              I2C1_SetAddressNackCallback@ptr 0048  
                      _INT_InterruptHandler 003F                        _I2C1_MasterGetRxData 0786  
                     _I2C1_MasterSendTxData 0732                          _EXT_INT_Initialize 0685  
                   __size_of_WDT_Initialize 0004                                    intlevel1 0000  
                  __end_of_I2C1_MasterClose 079B                      _I2C1_Read1ByteRegister 0316  
              EPWM2_LoadDutyValue@dutyValue 0041                     ?_PIN_MANAGER_Initialize 0070  
             I2C1_Read1ByteRegister@address 0056                    __end_of_I2C1_MasterStart 0795  
                  __end_of_I2C1_MasterWrite 073D                         ?_EXT_INT_Initialize 0070  
                          ??_I2C1_DO_RX_ACK 0041                     _I2C1_CallbackReturnStop 07A3  
                           ??_TMR4_CallBack 0070                        _I2C1_DO_ADDRESS_NACK 03E0  
                    ?_I2C1_MasterDisableIrq 0070                        __size_of_I2C1_Poller 000D  
                  ?_INT_SetInterruptHandler 0041                    __size_of_I2C1_MasterOpen 000D  
                  __size_of_I2C1_MasterStop 0003                    __size_of_I2C1_Initialize 0009  
                             __pstringtext1 045F                    __end_of_I2C1_SetCallback 045F  
                      ??_EXT_INT_Initialize 0043                         __size_of_I2C1_DO_RX 0047  
                       __size_of_I2C1_DO_TX 0056                             ??_I2C1_DO_RESET 0041  
                      _I2C1_MasterOperation 049E                         __size_of_I2C1_Close 001C  
                     ?_I2C1_MasterGetRxData 0070                         _EPWM1_LoadDutyValue 0511  
                               ?_IOCBF7_ISR 0070              __end_of_PIN_MANAGER_Initialize 03E0  
                          ??_TMR4_StopTimer 0070              __size_of_rd1RegCompleteHandler 0013  
             __end_of_rd1RegCompleteHandler 061C                          __size_of_I2C1_Open 003B  
                           _PIN_MANAGER_IOC 06EE              __size_of_wr1RegCompleteHandler 0013  
                           _WakeUpInterrupt 07A8               __end_of_wr1RegCompleteHandler 05F6  
                 __size_of_I2C1_DO_TX_EMPTY 0030                       ?_I2C1_DO_ADDRESS_NACK 0070  
                  __end_of_EPWM1_Initialize 065B                        ?_EPWM1_LoadDutyValue 0041  
